
test.elf:     file format elf32-littleriscv


Disassembly of section .init:

80000000 <InterruptVector>:
80000000:	00c0006f          	j	8000000c <_start>
80000004:	0040006f          	j	80000008 <_interrupttest>

80000008 <_interrupttest>:
80000008:	0000006f          	j	80000008 <_interrupttest>

8000000c <_start>:
8000000c:	20001197          	auipc	gp,0x20001
80000010:	c7418193          	addi	gp,gp,-908 # a0000c80 <__global_pointer$>
80000014:	08000693          	li	a3,128
80000018:	30069073          	csrw	mstatus,a3
8000001c:	06051263          	bnez	a0,80000080 <not_processor_zero>
80000020:	20100117          	auipc	sp,0x20100
80000024:	fe010113          	addi	sp,sp,-32 # a0100000 <_eusrstack>
80000028:	00006697          	auipc	a3,0x6
8000002c:	30868693          	addi	a3,a3,776 # 80006330 <_data_lma>
80000030:	20000717          	auipc	a4,0x20000
80000034:	fd070713          	addi	a4,a4,-48 # a0000000 <hardwaredef>
80000038:	20000797          	auipc	a5,0x20000
8000003c:	44878793          	addi	a5,a5,1096 # a0000480 <cursorx>
80000040:	00f70c63          	beq	a4,a5,80000058 <_start+0x4c>
80000044:	0006a883          	lw	a7,0(a3)
80000048:	01172023          	sw	a7,0(a4)
8000004c:	00468693          	addi	a3,a3,4
80000050:	00470713          	addi	a4,a4,4
80000054:	fef716e3          	bne	a4,a5,80000040 <_start+0x34>
80000058:	100006b7          	lui	a3,0x10000
8000005c:	01068693          	addi	a3,a3,16 # 10000010 <InterruptVector-0x6ffffff0>
80000060:	20000717          	auipc	a4,0x20000
80000064:	fa070713          	addi	a4,a4,-96 # a0000000 <hardwaredef>
80000068:	00e6a023          	sw	a4,0(a3)
8000006c:	00001717          	auipc	a4,0x1
80000070:	cb070713          	addi	a4,a4,-848 # 80000d1c <main>
80000074:	00076893          	ori	a7,a4,0
80000078:	34171073          	csrw	mepc,a4
8000007c:	30200073          	mret

80000080 <not_processor_zero>:
80000080:	20000697          	auipc	a3,0x20000
80000084:	f8068693          	addi	a3,a3,-128 # a0000000 <hardwaredef>
80000088:	0306a883          	lw	a7,48(a3)
8000008c:	fe088ee3          	beqz	a7,80000088 <not_processor_zero+0x8>
80000090:	00001717          	auipc	a4,0x1
80000094:	e8070713          	addi	a4,a4,-384 # 80000f10 <otherharts>
80000098:	00076893          	ori	a7,a4,0
8000009c:	34171073          	csrw	mepc,a4
800000a0:	30200073          	mret

Disassembly of section .text:

800000b0 <pcont>:
800000b0:	ff010113          	addi	sp,sp,-16
800000b4:	00812623          	sw	s0,12(sp)
800000b8:	01010413          	addi	s0,sp,16
800000bc:	02100073          	0x2100073
800000c0:	00c12403          	lw	s0,12(sp)
800000c4:	01010113          	addi	sp,sp,16
800000c8:	00008067          	ret

800000cc <__puts_uart>:
800000cc:	fe010113          	addi	sp,sp,-32
800000d0:	00112e23          	sw	ra,28(sp)
800000d4:	00812c23          	sw	s0,24(sp)
800000d8:	02010413          	addi	s0,sp,32
800000dc:	fea42623          	sw	a0,-20(s0)
800000e0:	feb42423          	sw	a1,-24(s0)
800000e4:	fec42223          	sw	a2,-28(s0)
800000e8:	fe842603          	lw	a2,-24(s0)
800000ec:	fec42583          	lw	a1,-20(s0)
800000f0:	00000513          	li	a0,0
800000f4:	225000ef          	jal	ra,80000b18 <_write>
800000f8:	fe842783          	lw	a5,-24(s0)
800000fc:	00078513          	mv	a0,a5
80000100:	01c12083          	lw	ra,28(sp)
80000104:	01812403          	lw	s0,24(sp)
80000108:	02010113          	addi	sp,sp,32
8000010c:	00008067          	ret

80000110 <printf>:
80000110:	fb010113          	addi	sp,sp,-80
80000114:	02112623          	sw	ra,44(sp)
80000118:	02812423          	sw	s0,40(sp)
8000011c:	03010413          	addi	s0,sp,48
80000120:	fca42e23          	sw	a0,-36(s0)
80000124:	00b42223          	sw	a1,4(s0)
80000128:	00c42423          	sw	a2,8(s0)
8000012c:	00d42623          	sw	a3,12(s0)
80000130:	00e42823          	sw	a4,16(s0)
80000134:	00f42a23          	sw	a5,20(s0)
80000138:	01042c23          	sw	a6,24(s0)
8000013c:	01142e23          	sw	a7,28(s0)
80000140:	02040793          	addi	a5,s0,32
80000144:	fcf42c23          	sw	a5,-40(s0)
80000148:	fd842783          	lw	a5,-40(s0)
8000014c:	fe478793          	addi	a5,a5,-28
80000150:	fef42423          	sw	a5,-24(s0)
80000154:	fe842783          	lw	a5,-24(s0)
80000158:	00078693          	mv	a3,a5
8000015c:	fdc42603          	lw	a2,-36(s0)
80000160:	00000593          	li	a1,0
80000164:	800007b7          	lui	a5,0x80000
80000168:	0cc78513          	addi	a0,a5,204 # 800000cc <_eusrstack+0xdff000cc>
8000016c:	518000ef          	jal	ra,80000684 <mini_vpprintf>
80000170:	fea42623          	sw	a0,-20(s0)
80000174:	fec42783          	lw	a5,-20(s0)
80000178:	00078513          	mv	a0,a5
8000017c:	02c12083          	lw	ra,44(sp)
80000180:	02812403          	lw	s0,40(sp)
80000184:	05010113          	addi	sp,sp,80
80000188:	00008067          	ret

8000018c <strlen>:
8000018c:	fd010113          	addi	sp,sp,-48
80000190:	02812623          	sw	s0,44(sp)
80000194:	03010413          	addi	s0,sp,48
80000198:	fca42e23          	sw	a0,-36(s0)
8000019c:	fdc42783          	lw	a5,-36(s0)
800001a0:	fef42623          	sw	a5,-20(s0)
800001a4:	0100006f          	j	800001b4 <strlen+0x28>
800001a8:	fdc42783          	lw	a5,-36(s0)
800001ac:	00178793          	addi	a5,a5,1
800001b0:	fcf42e23          	sw	a5,-36(s0)
800001b4:	fdc42783          	lw	a5,-36(s0)
800001b8:	0007c783          	lbu	a5,0(a5)
800001bc:	fe0796e3          	bnez	a5,800001a8 <strlen+0x1c>
800001c0:	fdc42703          	lw	a4,-36(s0)
800001c4:	fec42783          	lw	a5,-20(s0)
800001c8:	40f707b3          	sub	a5,a4,a5
800001cc:	00078513          	mv	a0,a5
800001d0:	02c12403          	lw	s0,44(sp)
800001d4:	03010113          	addi	sp,sp,48
800001d8:	00008067          	ret

800001dc <memset>:
800001dc:	fd010113          	addi	sp,sp,-48
800001e0:	02812623          	sw	s0,44(sp)
800001e4:	03010413          	addi	s0,sp,48
800001e8:	fca42e23          	sw	a0,-36(s0)
800001ec:	fcb42c23          	sw	a1,-40(s0)
800001f0:	fcc42a23          	sw	a2,-44(s0)
800001f4:	fdc42783          	lw	a5,-36(s0)
800001f8:	fef42623          	sw	a5,-20(s0)
800001fc:	02c0006f          	j	80000228 <memset+0x4c>
80000200:	fd842783          	lw	a5,-40(s0)
80000204:	0ff7f713          	andi	a4,a5,255
80000208:	fec42783          	lw	a5,-20(s0)
8000020c:	00e78023          	sb	a4,0(a5)
80000210:	fd442783          	lw	a5,-44(s0)
80000214:	fff78793          	addi	a5,a5,-1
80000218:	fcf42a23          	sw	a5,-44(s0)
8000021c:	fec42783          	lw	a5,-20(s0)
80000220:	00178793          	addi	a5,a5,1
80000224:	fef42623          	sw	a5,-20(s0)
80000228:	fd442783          	lw	a5,-44(s0)
8000022c:	fc079ae3          	bnez	a5,80000200 <memset+0x24>
80000230:	fdc42783          	lw	a5,-36(s0)
80000234:	00078513          	mv	a0,a5
80000238:	02c12403          	lw	s0,44(sp)
8000023c:	03010113          	addi	sp,sp,48
80000240:	00008067          	ret

80000244 <puts>:
80000244:	fd010113          	addi	sp,sp,-48
80000248:	02112623          	sw	ra,44(sp)
8000024c:	02812423          	sw	s0,40(sp)
80000250:	03010413          	addi	s0,sp,48
80000254:	fca42e23          	sw	a0,-36(s0)
80000258:	fdc42503          	lw	a0,-36(s0)
8000025c:	f31ff0ef          	jal	ra,8000018c <strlen>
80000260:	00050793          	mv	a5,a0
80000264:	fef42623          	sw	a5,-20(s0)
80000268:	fec42603          	lw	a2,-20(s0)
8000026c:	fdc42583          	lw	a1,-36(s0)
80000270:	00000513          	li	a0,0
80000274:	0a5000ef          	jal	ra,80000b18 <_write>
80000278:	00100613          	li	a2,1
8000027c:	800067b7          	lui	a5,0x80006
80000280:	27078593          	addi	a1,a5,624 # 80006270 <_eusrstack+0xdff06270>
80000284:	00000513          	li	a0,0
80000288:	091000ef          	jal	ra,80000b18 <_write>
8000028c:	fec42783          	lw	a5,-20(s0)
80000290:	00178793          	addi	a5,a5,1
80000294:	00078513          	mv	a0,a5
80000298:	02c12083          	lw	ra,44(sp)
8000029c:	02812403          	lw	s0,40(sp)
800002a0:	03010113          	addi	sp,sp,48
800002a4:	00008067          	ret

800002a8 <mini_itoa>:
800002a8:	fb010113          	addi	sp,sp,-80
800002ac:	04812623          	sw	s0,76(sp)
800002b0:	05010413          	addi	s0,sp,80
800002b4:	fca42623          	sw	a0,-52(s0)
800002b8:	fcb42423          	sw	a1,-56(s0)
800002bc:	fcc42223          	sw	a2,-60(s0)
800002c0:	fcd42023          	sw	a3,-64(s0)
800002c4:	fae42e23          	sw	a4,-68(s0)
800002c8:	fbc42783          	lw	a5,-68(s0)
800002cc:	fef42623          	sw	a5,-20(s0)
800002d0:	fe042423          	sw	zero,-24(s0)
800002d4:	fc842703          	lw	a4,-56(s0)
800002d8:	01000793          	li	a5,16
800002dc:	00e7f663          	bgeu	a5,a4,800002e8 <mini_itoa+0x40>
800002e0:	00000793          	li	a5,0
800002e4:	1740006f          	j	80000458 <mini_itoa+0x1b0>
800002e8:	fcc42783          	lw	a5,-52(s0)
800002ec:	0207d063          	bgez	a5,8000030c <mini_itoa+0x64>
800002f0:	fc042783          	lw	a5,-64(s0)
800002f4:	00079c63          	bnez	a5,8000030c <mini_itoa+0x64>
800002f8:	00100793          	li	a5,1
800002fc:	fef42423          	sw	a5,-24(s0)
80000300:	fcc42783          	lw	a5,-52(s0)
80000304:	40f007b3          	neg	a5,a5
80000308:	fcf42623          	sw	a5,-52(s0)
8000030c:	fcc42703          	lw	a4,-52(s0)
80000310:	fc842783          	lw	a5,-56(s0)
80000314:	02f777b3          	remu	a5,a4,a5
80000318:	fef42023          	sw	a5,-32(s0)
8000031c:	fe042703          	lw	a4,-32(s0)
80000320:	00900793          	li	a5,9
80000324:	00e7cc63          	blt	a5,a4,8000033c <mini_itoa+0x94>
80000328:	fe042783          	lw	a5,-32(s0)
8000032c:	0ff7f793          	andi	a5,a5,255
80000330:	03078793          	addi	a5,a5,48
80000334:	0ff7f713          	andi	a4,a5,255
80000338:	0300006f          	j	80000368 <mini_itoa+0xc0>
8000033c:	fc442783          	lw	a5,-60(s0)
80000340:	00078663          	beqz	a5,8000034c <mini_itoa+0xa4>
80000344:	04100793          	li	a5,65
80000348:	0080006f          	j	80000350 <mini_itoa+0xa8>
8000034c:	06100793          	li	a5,97
80000350:	fe042703          	lw	a4,-32(s0)
80000354:	0ff77713          	andi	a4,a4,255
80000358:	00e787b3          	add	a5,a5,a4
8000035c:	0ff7f793          	andi	a5,a5,255
80000360:	ff678793          	addi	a5,a5,-10
80000364:	0ff7f713          	andi	a4,a5,255
80000368:	fec42783          	lw	a5,-20(s0)
8000036c:	00178693          	addi	a3,a5,1
80000370:	fed42623          	sw	a3,-20(s0)
80000374:	00e78023          	sb	a4,0(a5)
80000378:	fcc42703          	lw	a4,-52(s0)
8000037c:	fc842783          	lw	a5,-56(s0)
80000380:	02f757b3          	divu	a5,a4,a5
80000384:	fcf42623          	sw	a5,-52(s0)
80000388:	fcc42783          	lw	a5,-52(s0)
8000038c:	f8f040e3          	bgtz	a5,8000030c <mini_itoa+0x64>
80000390:	fe842783          	lw	a5,-24(s0)
80000394:	00078c63          	beqz	a5,800003ac <mini_itoa+0x104>
80000398:	fec42783          	lw	a5,-20(s0)
8000039c:	00178713          	addi	a4,a5,1
800003a0:	fee42623          	sw	a4,-20(s0)
800003a4:	02d00713          	li	a4,45
800003a8:	00e78023          	sb	a4,0(a5)
800003ac:	fec42783          	lw	a5,-20(s0)
800003b0:	00078023          	sb	zero,0(a5)
800003b4:	fec42703          	lw	a4,-20(s0)
800003b8:	fbc42783          	lw	a5,-68(s0)
800003bc:	40f707b3          	sub	a5,a4,a5
800003c0:	fcf42e23          	sw	a5,-36(s0)
800003c4:	fe042223          	sw	zero,-28(s0)
800003c8:	0700006f          	j	80000438 <mini_itoa+0x190>
800003cc:	fe442783          	lw	a5,-28(s0)
800003d0:	fbc42703          	lw	a4,-68(s0)
800003d4:	00f707b3          	add	a5,a4,a5
800003d8:	0007c783          	lbu	a5,0(a5)
800003dc:	fcf40da3          	sb	a5,-37(s0)
800003e0:	fdc42703          	lw	a4,-36(s0)
800003e4:	fe442783          	lw	a5,-28(s0)
800003e8:	40f707b3          	sub	a5,a4,a5
800003ec:	fff78793          	addi	a5,a5,-1
800003f0:	fbc42703          	lw	a4,-68(s0)
800003f4:	00f70733          	add	a4,a4,a5
800003f8:	fe442783          	lw	a5,-28(s0)
800003fc:	fbc42683          	lw	a3,-68(s0)
80000400:	00f687b3          	add	a5,a3,a5
80000404:	00074703          	lbu	a4,0(a4)
80000408:	00e78023          	sb	a4,0(a5)
8000040c:	fdc42703          	lw	a4,-36(s0)
80000410:	fe442783          	lw	a5,-28(s0)
80000414:	40f707b3          	sub	a5,a4,a5
80000418:	fff78793          	addi	a5,a5,-1
8000041c:	fbc42703          	lw	a4,-68(s0)
80000420:	00f707b3          	add	a5,a4,a5
80000424:	fdb44703          	lbu	a4,-37(s0)
80000428:	00e78023          	sb	a4,0(a5)
8000042c:	fe442783          	lw	a5,-28(s0)
80000430:	00178793          	addi	a5,a5,1
80000434:	fef42223          	sw	a5,-28(s0)
80000438:	fdc42783          	lw	a5,-36(s0)
8000043c:	01f7d713          	srli	a4,a5,0x1f
80000440:	00f707b3          	add	a5,a4,a5
80000444:	4017d793          	srai	a5,a5,0x1
80000448:	00078713          	mv	a4,a5
8000044c:	fe442783          	lw	a5,-28(s0)
80000450:	f6e7cee3          	blt	a5,a4,800003cc <mini_itoa+0x124>
80000454:	fdc42783          	lw	a5,-36(s0)
80000458:	00078513          	mv	a0,a5
8000045c:	04c12403          	lw	s0,76(sp)
80000460:	05010113          	addi	sp,sp,80
80000464:	00008067          	ret

80000468 <mini_pad>:
80000468:	fc010113          	addi	sp,sp,-64
8000046c:	02812e23          	sw	s0,60(sp)
80000470:	04010413          	addi	s0,sp,64
80000474:	fca42e23          	sw	a0,-36(s0)
80000478:	fcb42c23          	sw	a1,-40(s0)
8000047c:	00060793          	mv	a5,a2
80000480:	fcd42823          	sw	a3,-48(s0)
80000484:	fce42623          	sw	a4,-52(s0)
80000488:	fcf40ba3          	sb	a5,-41(s0)
8000048c:	fe042423          	sw	zero,-24(s0)
80000490:	fcc42783          	lw	a5,-52(s0)
80000494:	fef42223          	sw	a5,-28(s0)
80000498:	fd042783          	lw	a5,-48(s0)
8000049c:	00079663          	bnez	a5,800004a8 <mini_pad+0x40>
800004a0:	fd842783          	lw	a5,-40(s0)
800004a4:	fcf42823          	sw	a5,-48(s0)
800004a8:	fd842703          	lw	a4,-40(s0)
800004ac:	fd042783          	lw	a5,-48(s0)
800004b0:	00e7da63          	bge	a5,a4,800004c4 <mini_pad+0x5c>
800004b4:	fd042783          	lw	a5,-48(s0)
800004b8:	fcf42c23          	sw	a5,-40(s0)
800004bc:	00100793          	li	a5,1
800004c0:	fef42423          	sw	a5,-24(s0)
800004c4:	fd042703          	lw	a4,-48(s0)
800004c8:	fd842783          	lw	a5,-40(s0)
800004cc:	40f707b3          	sub	a5,a4,a5
800004d0:	fef42623          	sw	a5,-20(s0)
800004d4:	0240006f          	j	800004f8 <mini_pad+0x90>
800004d8:	fe442783          	lw	a5,-28(s0)
800004dc:	00178713          	addi	a4,a5,1
800004e0:	fee42223          	sw	a4,-28(s0)
800004e4:	fd744703          	lbu	a4,-41(s0)
800004e8:	00e78023          	sb	a4,0(a5)
800004ec:	fec42783          	lw	a5,-20(s0)
800004f0:	fff78793          	addi	a5,a5,-1
800004f4:	fef42623          	sw	a5,-20(s0)
800004f8:	fec42783          	lw	a5,-20(s0)
800004fc:	fcf04ee3          	bgtz	a5,800004d8 <mini_pad+0x70>
80000500:	fd842783          	lw	a5,-40(s0)
80000504:	fef42623          	sw	a5,-20(s0)
80000508:	0300006f          	j	80000538 <mini_pad+0xd0>
8000050c:	fdc42703          	lw	a4,-36(s0)
80000510:	00170793          	addi	a5,a4,1
80000514:	fcf42e23          	sw	a5,-36(s0)
80000518:	fe442783          	lw	a5,-28(s0)
8000051c:	00178693          	addi	a3,a5,1
80000520:	fed42223          	sw	a3,-28(s0)
80000524:	00074703          	lbu	a4,0(a4)
80000528:	00e78023          	sb	a4,0(a5)
8000052c:	fec42783          	lw	a5,-20(s0)
80000530:	fff78793          	addi	a5,a5,-1
80000534:	fef42623          	sw	a5,-20(s0)
80000538:	fec42783          	lw	a5,-20(s0)
8000053c:	fcf048e3          	bgtz	a5,8000050c <mini_pad+0xa4>
80000540:	fe442703          	lw	a4,-28(s0)
80000544:	fcc42783          	lw	a5,-52(s0)
80000548:	40f707b3          	sub	a5,a4,a5
8000054c:	fcf42c23          	sw	a5,-40(s0)
80000550:	fe842783          	lw	a5,-24(s0)
80000554:	04078463          	beqz	a5,8000059c <mini_pad+0x134>
80000558:	fe042623          	sw	zero,-20(s0)
8000055c:	0280006f          	j	80000584 <mini_pad+0x11c>
80000560:	fe442783          	lw	a5,-28(s0)
80000564:	fff78713          	addi	a4,a5,-1
80000568:	fee42223          	sw	a4,-28(s0)
8000056c:	fff78793          	addi	a5,a5,-1
80000570:	02a00713          	li	a4,42
80000574:	00e78023          	sb	a4,0(a5)
80000578:	fec42783          	lw	a5,-20(s0)
8000057c:	00178793          	addi	a5,a5,1
80000580:	fef42623          	sw	a5,-20(s0)
80000584:	fec42703          	lw	a4,-20(s0)
80000588:	00200793          	li	a5,2
8000058c:	00e7c863          	blt	a5,a4,8000059c <mini_pad+0x134>
80000590:	fe442703          	lw	a4,-28(s0)
80000594:	fcc42783          	lw	a5,-52(s0)
80000598:	fce7e4e3          	bltu	a5,a4,80000560 <mini_pad+0xf8>
8000059c:	fd842783          	lw	a5,-40(s0)
800005a0:	00078513          	mv	a0,a5
800005a4:	03c12403          	lw	s0,60(sp)
800005a8:	04010113          	addi	sp,sp,64
800005ac:	00008067          	ret

800005b0 <_puts>:
800005b0:	fd010113          	addi	sp,sp,-48
800005b4:	02812623          	sw	s0,44(sp)
800005b8:	03010413          	addi	s0,sp,48
800005bc:	fca42e23          	sw	a0,-36(s0)
800005c0:	fcb42c23          	sw	a1,-40(s0)
800005c4:	fcc42a23          	sw	a2,-44(s0)
800005c8:	fd442783          	lw	a5,-44(s0)
800005cc:	00079663          	bnez	a5,800005d8 <_puts+0x28>
800005d0:	fd842783          	lw	a5,-40(s0)
800005d4:	0a00006f          	j	80000674 <_puts+0xc4>
800005d8:	fd442783          	lw	a5,-44(s0)
800005dc:	fef42423          	sw	a5,-24(s0)
800005e0:	fe842783          	lw	a5,-24(s0)
800005e4:	0007a783          	lw	a5,0(a5)
800005e8:	fef42223          	sw	a5,-28(s0)
800005ec:	fe042623          	sw	zero,-20(s0)
800005f0:	05c0006f          	j	8000064c <_puts+0x9c>
800005f4:	fe842783          	lw	a5,-24(s0)
800005f8:	0047a703          	lw	a4,4(a5)
800005fc:	fe842783          	lw	a5,-24(s0)
80000600:	0007a683          	lw	a3,0(a5)
80000604:	fe842783          	lw	a5,-24(s0)
80000608:	0087a783          	lw	a5,8(a5)
8000060c:	fff78793          	addi	a5,a5,-1
80000610:	00f687b3          	add	a5,a3,a5
80000614:	04f70263          	beq	a4,a5,80000658 <_puts+0xa8>
80000618:	fec42783          	lw	a5,-20(s0)
8000061c:	fdc42703          	lw	a4,-36(s0)
80000620:	00f70733          	add	a4,a4,a5
80000624:	fe842783          	lw	a5,-24(s0)
80000628:	0047a783          	lw	a5,4(a5)
8000062c:	00178613          	addi	a2,a5,1
80000630:	fe842683          	lw	a3,-24(s0)
80000634:	00c6a223          	sw	a2,4(a3)
80000638:	00074703          	lbu	a4,0(a4)
8000063c:	00e78023          	sb	a4,0(a5)
80000640:	fec42783          	lw	a5,-20(s0)
80000644:	00178793          	addi	a5,a5,1
80000648:	fef42623          	sw	a5,-20(s0)
8000064c:	fec42703          	lw	a4,-20(s0)
80000650:	fd842783          	lw	a5,-40(s0)
80000654:	faf740e3          	blt	a4,a5,800005f4 <_puts+0x44>
80000658:	fe842783          	lw	a5,-24(s0)
8000065c:	0047a783          	lw	a5,4(a5)
80000660:	00078023          	sb	zero,0(a5)
80000664:	fe842783          	lw	a5,-24(s0)
80000668:	0047a703          	lw	a4,4(a5)
8000066c:	fe442783          	lw	a5,-28(s0)
80000670:	40f707b3          	sub	a5,a4,a5
80000674:	00078513          	mv	a0,a5
80000678:	02c12403          	lw	s0,44(sp)
8000067c:	03010113          	addi	sp,sp,48
80000680:	00008067          	ret

80000684 <mini_vpprintf>:
80000684:	f9010113          	addi	sp,sp,-112
80000688:	06112623          	sw	ra,108(sp)
8000068c:	06812423          	sw	s0,104(sp)
80000690:	07010413          	addi	s0,sp,112
80000694:	f8a42e23          	sw	a0,-100(s0)
80000698:	f8b42c23          	sw	a1,-104(s0)
8000069c:	f8c42a23          	sw	a2,-108(s0)
800006a0:	f8d42823          	sw	a3,-112(s0)
800006a4:	f9c42783          	lw	a5,-100(s0)
800006a8:	00079a63          	bnez	a5,800006bc <mini_vpprintf+0x38>
800006ac:	800007b7          	lui	a5,0x80000
800006b0:	5b078793          	addi	a5,a5,1456 # 800005b0 <_eusrstack+0xdff005b0>
800006b4:	f8f42e23          	sw	a5,-100(s0)
800006b8:	f8042c23          	sw	zero,-104(s0)
800006bc:	fe042623          	sw	zero,-20(s0)
800006c0:	41c0006f          	j	80000adc <mini_vpprintf+0x458>
800006c4:	fa744703          	lbu	a4,-89(s0)
800006c8:	02500793          	li	a5,37
800006cc:	02f70663          	beq	a4,a5,800006f8 <mini_vpprintf+0x74>
800006d0:	00100793          	li	a5,1
800006d4:	fef42423          	sw	a5,-24(s0)
800006d8:	fa740793          	addi	a5,s0,-89
800006dc:	f9c42703          	lw	a4,-100(s0)
800006e0:	f9842603          	lw	a2,-104(s0)
800006e4:	fe842583          	lw	a1,-24(s0)
800006e8:	00078513          	mv	a0,a5
800006ec:	000700e7          	jalr	a4
800006f0:	fea42423          	sw	a0,-24(s0)
800006f4:	3d80006f          	j	80000acc <mini_vpprintf+0x448>
800006f8:	02000793          	li	a5,32
800006fc:	fef403a3          	sb	a5,-25(s0)
80000700:	fe042023          	sw	zero,-32(s0)
80000704:	fc040fa3          	sb	zero,-33(s0)
80000708:	f9442783          	lw	a5,-108(s0)
8000070c:	00178713          	addi	a4,a5,1
80000710:	f8e42a23          	sw	a4,-108(s0)
80000714:	0007c783          	lbu	a5,0(a5)
80000718:	faf403a3          	sb	a5,-89(s0)
8000071c:	fa744703          	lbu	a4,-89(s0)
80000720:	03000793          	li	a5,48
80000724:	04f71663          	bne	a4,a5,80000770 <mini_vpprintf+0xec>
80000728:	03000793          	li	a5,48
8000072c:	fef403a3          	sb	a5,-25(s0)
80000730:	0400006f          	j	80000770 <mini_vpprintf+0xec>
80000734:	fe042703          	lw	a4,-32(s0)
80000738:	00070793          	mv	a5,a4
8000073c:	00279793          	slli	a5,a5,0x2
80000740:	00e787b3          	add	a5,a5,a4
80000744:	00179793          	slli	a5,a5,0x1
80000748:	00078713          	mv	a4,a5
8000074c:	fa744783          	lbu	a5,-89(s0)
80000750:	fd078793          	addi	a5,a5,-48
80000754:	00f707b3          	add	a5,a4,a5
80000758:	fef42023          	sw	a5,-32(s0)
8000075c:	f9442783          	lw	a5,-108(s0)
80000760:	00178713          	addi	a4,a5,1
80000764:	f8e42a23          	sw	a4,-108(s0)
80000768:	0007c783          	lbu	a5,0(a5)
8000076c:	faf403a3          	sb	a5,-89(s0)
80000770:	fa744703          	lbu	a4,-89(s0)
80000774:	02f00793          	li	a5,47
80000778:	00e7f863          	bgeu	a5,a4,80000788 <mini_vpprintf+0x104>
8000077c:	fa744703          	lbu	a4,-89(s0)
80000780:	03900793          	li	a5,57
80000784:	fae7f8e3          	bgeu	a5,a4,80000734 <mini_vpprintf+0xb0>
80000788:	fe042703          	lw	a4,-32(s0)
8000078c:	01800793          	li	a5,24
80000790:	00e7d663          	bge	a5,a4,8000079c <mini_vpprintf+0x118>
80000794:	01800793          	li	a5,24
80000798:	fef42023          	sw	a5,-32(s0)
8000079c:	fa744703          	lbu	a4,-89(s0)
800007a0:	06c00793          	li	a5,108
800007a4:	02f71063          	bne	a4,a5,800007c4 <mini_vpprintf+0x140>
800007a8:	00100793          	li	a5,1
800007ac:	fcf40fa3          	sb	a5,-33(s0)
800007b0:	f9442783          	lw	a5,-108(s0)
800007b4:	00178713          	addi	a4,a5,1
800007b8:	f8e42a23          	sw	a4,-108(s0)
800007bc:	0007c783          	lbu	a5,0(a5)
800007c0:	faf403a3          	sb	a5,-89(s0)
800007c4:	fa744783          	lbu	a5,-89(s0)
800007c8:	32078a63          	beqz	a5,80000afc <mini_vpprintf+0x478>
800007cc:	2c07ce63          	bltz	a5,80000aa8 <mini_vpprintf+0x424>
800007d0:	07800713          	li	a4,120
800007d4:	2cf74a63          	blt	a4,a5,80000aa8 <mini_vpprintf+0x424>
800007d8:	05800713          	li	a4,88
800007dc:	2ce7c663          	blt	a5,a4,80000aa8 <mini_vpprintf+0x424>
800007e0:	fa878793          	addi	a5,a5,-88
800007e4:	02000713          	li	a4,32
800007e8:	2cf76063          	bltu	a4,a5,80000aa8 <mini_vpprintf+0x424>
800007ec:	00279713          	slli	a4,a5,0x2
800007f0:	800067b7          	lui	a5,0x80006
800007f4:	27478793          	addi	a5,a5,628 # 80006274 <_eusrstack+0xdff06274>
800007f8:	00f707b3          	add	a5,a4,a5
800007fc:	0007a783          	lw	a5,0(a5)
80000800:	00078067          	jr	a5
80000804:	fdf44783          	lbu	a5,-33(s0)
80000808:	04078463          	beqz	a5,80000850 <mini_vpprintf+0x1cc>
8000080c:	f9042783          	lw	a5,-112(s0)
80000810:	00478713          	addi	a4,a5,4
80000814:	f8e42823          	sw	a4,-112(s0)
80000818:	0007a783          	lw	a5,0(a5)
8000081c:	00078513          	mv	a0,a5
80000820:	fa744783          	lbu	a5,-89(s0)
80000824:	f8b78793          	addi	a5,a5,-117
80000828:	0017b793          	seqz	a5,a5
8000082c:	0ff7f793          	andi	a5,a5,255
80000830:	00078693          	mv	a3,a5
80000834:	fa840793          	addi	a5,s0,-88
80000838:	00078713          	mv	a4,a5
8000083c:	00000613          	li	a2,0
80000840:	00a00593          	li	a1,10
80000844:	a65ff0ef          	jal	ra,800002a8 <mini_itoa>
80000848:	fea42423          	sw	a0,-24(s0)
8000084c:	0700006f          	j	800008bc <mini_vpprintf+0x238>
80000850:	fa744703          	lbu	a4,-89(s0)
80000854:	07500793          	li	a5,117
80000858:	02f71c63          	bne	a4,a5,80000890 <mini_vpprintf+0x20c>
8000085c:	f9042783          	lw	a5,-112(s0)
80000860:	00478713          	addi	a4,a5,4
80000864:	f8e42823          	sw	a4,-112(s0)
80000868:	0007a783          	lw	a5,0(a5)
8000086c:	00078513          	mv	a0,a5
80000870:	fa840793          	addi	a5,s0,-88
80000874:	00078713          	mv	a4,a5
80000878:	00100693          	li	a3,1
8000087c:	00000613          	li	a2,0
80000880:	00a00593          	li	a1,10
80000884:	a25ff0ef          	jal	ra,800002a8 <mini_itoa>
80000888:	fea42423          	sw	a0,-24(s0)
8000088c:	0300006f          	j	800008bc <mini_vpprintf+0x238>
80000890:	f9042783          	lw	a5,-112(s0)
80000894:	00478713          	addi	a4,a5,4
80000898:	f8e42823          	sw	a4,-112(s0)
8000089c:	0007a783          	lw	a5,0(a5)
800008a0:	fa840713          	addi	a4,s0,-88
800008a4:	00000693          	li	a3,0
800008a8:	00000613          	li	a2,0
800008ac:	00a00593          	li	a1,10
800008b0:	00078513          	mv	a0,a5
800008b4:	9f5ff0ef          	jal	ra,800002a8 <mini_itoa>
800008b8:	fea42423          	sw	a0,-24(s0)
800008bc:	fc040713          	addi	a4,s0,-64
800008c0:	fe744603          	lbu	a2,-25(s0)
800008c4:	fa840793          	addi	a5,s0,-88
800008c8:	fe042683          	lw	a3,-32(s0)
800008cc:	fe842583          	lw	a1,-24(s0)
800008d0:	00078513          	mv	a0,a5
800008d4:	b95ff0ef          	jal	ra,80000468 <mini_pad>
800008d8:	fea42423          	sw	a0,-24(s0)
800008dc:	fc040793          	addi	a5,s0,-64
800008e0:	f9c42703          	lw	a4,-100(s0)
800008e4:	f9842603          	lw	a2,-104(s0)
800008e8:	fe842583          	lw	a1,-24(s0)
800008ec:	00078513          	mv	a0,a5
800008f0:	000700e7          	jalr	a4
800008f4:	fea42423          	sw	a0,-24(s0)
800008f8:	1d40006f          	j	80000acc <mini_vpprintf+0x448>
800008fc:	fdf44783          	lbu	a5,-33(s0)
80000900:	04078463          	beqz	a5,80000948 <mini_vpprintf+0x2c4>
80000904:	f9042783          	lw	a5,-112(s0)
80000908:	00478713          	addi	a4,a5,4
8000090c:	f8e42823          	sw	a4,-112(s0)
80000910:	0007a783          	lw	a5,0(a5)
80000914:	00078513          	mv	a0,a5
80000918:	fa744783          	lbu	a5,-89(s0)
8000091c:	fa878793          	addi	a5,a5,-88
80000920:	0017b793          	seqz	a5,a5
80000924:	0ff7f793          	andi	a5,a5,255
80000928:	00078613          	mv	a2,a5
8000092c:	fa840793          	addi	a5,s0,-88
80000930:	00078713          	mv	a4,a5
80000934:	00100693          	li	a3,1
80000938:	01000593          	li	a1,16
8000093c:	96dff0ef          	jal	ra,800002a8 <mini_itoa>
80000940:	fea42423          	sw	a0,-24(s0)
80000944:	0440006f          	j	80000988 <mini_vpprintf+0x304>
80000948:	f9042783          	lw	a5,-112(s0)
8000094c:	00478713          	addi	a4,a5,4
80000950:	f8e42823          	sw	a4,-112(s0)
80000954:	0007a783          	lw	a5,0(a5)
80000958:	00078513          	mv	a0,a5
8000095c:	fa744783          	lbu	a5,-89(s0)
80000960:	fa878793          	addi	a5,a5,-88
80000964:	0017b793          	seqz	a5,a5
80000968:	0ff7f793          	andi	a5,a5,255
8000096c:	00078613          	mv	a2,a5
80000970:	fa840793          	addi	a5,s0,-88
80000974:	00078713          	mv	a4,a5
80000978:	00100693          	li	a3,1
8000097c:	01000593          	li	a1,16
80000980:	929ff0ef          	jal	ra,800002a8 <mini_itoa>
80000984:	fea42423          	sw	a0,-24(s0)
80000988:	fc040713          	addi	a4,s0,-64
8000098c:	fe744603          	lbu	a2,-25(s0)
80000990:	fa840793          	addi	a5,s0,-88
80000994:	fe042683          	lw	a3,-32(s0)
80000998:	fe842583          	lw	a1,-24(s0)
8000099c:	00078513          	mv	a0,a5
800009a0:	ac9ff0ef          	jal	ra,80000468 <mini_pad>
800009a4:	fea42423          	sw	a0,-24(s0)
800009a8:	fc040793          	addi	a5,s0,-64
800009ac:	f9c42703          	lw	a4,-100(s0)
800009b0:	f9842603          	lw	a2,-104(s0)
800009b4:	fe842583          	lw	a1,-24(s0)
800009b8:	00078513          	mv	a0,a5
800009bc:	000700e7          	jalr	a4
800009c0:	fea42423          	sw	a0,-24(s0)
800009c4:	1080006f          	j	80000acc <mini_vpprintf+0x448>
800009c8:	f9042783          	lw	a5,-112(s0)
800009cc:	00478713          	addi	a4,a5,4
800009d0:	f8e42823          	sw	a4,-112(s0)
800009d4:	0007a783          	lw	a5,0(a5)
800009d8:	0ff7f793          	andi	a5,a5,255
800009dc:	faf403a3          	sb	a5,-89(s0)
800009e0:	fc040713          	addi	a4,s0,-64
800009e4:	fe744603          	lbu	a2,-25(s0)
800009e8:	fa740793          	addi	a5,s0,-89
800009ec:	fe042683          	lw	a3,-32(s0)
800009f0:	00100593          	li	a1,1
800009f4:	00078513          	mv	a0,a5
800009f8:	a71ff0ef          	jal	ra,80000468 <mini_pad>
800009fc:	fea42423          	sw	a0,-24(s0)
80000a00:	fc040793          	addi	a5,s0,-64
80000a04:	f9c42703          	lw	a4,-100(s0)
80000a08:	f9842603          	lw	a2,-104(s0)
80000a0c:	fe842583          	lw	a1,-24(s0)
80000a10:	00078513          	mv	a0,a5
80000a14:	000700e7          	jalr	a4
80000a18:	fea42423          	sw	a0,-24(s0)
80000a1c:	0b00006f          	j	80000acc <mini_vpprintf+0x448>
80000a20:	f9042783          	lw	a5,-112(s0)
80000a24:	00478713          	addi	a4,a5,4
80000a28:	f8e42823          	sw	a4,-112(s0)
80000a2c:	0007a783          	lw	a5,0(a5)
80000a30:	fcf42c23          	sw	a5,-40(s0)
80000a34:	fd842503          	lw	a0,-40(s0)
80000a38:	f54ff0ef          	jal	ra,8000018c <strlen>
80000a3c:	00050793          	mv	a5,a0
80000a40:	fef42423          	sw	a5,-24(s0)
80000a44:	fe042783          	lw	a5,-32(s0)
80000a48:	04f05263          	blez	a5,80000a8c <mini_vpprintf+0x408>
80000a4c:	fc040713          	addi	a4,s0,-64
80000a50:	fe744783          	lbu	a5,-25(s0)
80000a54:	fe042683          	lw	a3,-32(s0)
80000a58:	00078613          	mv	a2,a5
80000a5c:	fe842583          	lw	a1,-24(s0)
80000a60:	fd842503          	lw	a0,-40(s0)
80000a64:	a05ff0ef          	jal	ra,80000468 <mini_pad>
80000a68:	fea42423          	sw	a0,-24(s0)
80000a6c:	fc040793          	addi	a5,s0,-64
80000a70:	f9c42703          	lw	a4,-100(s0)
80000a74:	f9842603          	lw	a2,-104(s0)
80000a78:	fe842583          	lw	a1,-24(s0)
80000a7c:	00078513          	mv	a0,a5
80000a80:	000700e7          	jalr	a4
80000a84:	fea42423          	sw	a0,-24(s0)
80000a88:	0440006f          	j	80000acc <mini_vpprintf+0x448>
80000a8c:	f9c42783          	lw	a5,-100(s0)
80000a90:	f9842603          	lw	a2,-104(s0)
80000a94:	fe842583          	lw	a1,-24(s0)
80000a98:	fd842503          	lw	a0,-40(s0)
80000a9c:	000780e7          	jalr	a5
80000aa0:	fea42423          	sw	a0,-24(s0)
80000aa4:	0280006f          	j	80000acc <mini_vpprintf+0x448>
80000aa8:	00100793          	li	a5,1
80000aac:	fef42423          	sw	a5,-24(s0)
80000ab0:	fa740793          	addi	a5,s0,-89
80000ab4:	f9c42703          	lw	a4,-100(s0)
80000ab8:	f9842603          	lw	a2,-104(s0)
80000abc:	fe842583          	lw	a1,-24(s0)
80000ac0:	00078513          	mv	a0,a5
80000ac4:	000700e7          	jalr	a4
80000ac8:	fea42423          	sw	a0,-24(s0)
80000acc:	fec42703          	lw	a4,-20(s0)
80000ad0:	fe842783          	lw	a5,-24(s0)
80000ad4:	00f707b3          	add	a5,a4,a5
80000ad8:	fef42623          	sw	a5,-20(s0)
80000adc:	f9442783          	lw	a5,-108(s0)
80000ae0:	00178713          	addi	a4,a5,1
80000ae4:	f8e42a23          	sw	a4,-108(s0)
80000ae8:	0007c783          	lbu	a5,0(a5)
80000aec:	faf403a3          	sb	a5,-89(s0)
80000af0:	fa744783          	lbu	a5,-89(s0)
80000af4:	bc0798e3          	bnez	a5,800006c4 <mini_vpprintf+0x40>
80000af8:	0080006f          	j	80000b00 <mini_vpprintf+0x47c>
80000afc:	00000013          	nop
80000b00:	fec42783          	lw	a5,-20(s0)
80000b04:	00078513          	mv	a0,a5
80000b08:	06c12083          	lw	ra,108(sp)
80000b0c:	06812403          	lw	s0,104(sp)
80000b10:	07010113          	addi	sp,sp,112
80000b14:	00008067          	ret

80000b18 <_write>:
80000b18:	fd010113          	addi	sp,sp,-48
80000b1c:	02112623          	sw	ra,44(sp)
80000b20:	02812423          	sw	s0,40(sp)
80000b24:	03010413          	addi	s0,sp,48
80000b28:	fca42e23          	sw	a0,-36(s0)
80000b2c:	fcb42c23          	sw	a1,-40(s0)
80000b30:	fcc42a23          	sw	a2,-44(s0)
80000b34:	fe042623          	sw	zero,-20(s0)
80000b38:	1c40006f          	j	80000cfc <_write+0x1e4>
80000b3c:	fec42783          	lw	a5,-20(s0)
80000b40:	fd842703          	lw	a4,-40(s0)
80000b44:	00f707b3          	add	a5,a4,a5
80000b48:	0007c783          	lbu	a5,0(a5)
80000b4c:	fef42423          	sw	a5,-24(s0)
80000b50:	fe842703          	lw	a4,-24(s0)
80000b54:	00a00793          	li	a5,10
80000b58:	02f71263          	bne	a4,a5,80000b7c <_write+0x64>
80000b5c:	a00007b7          	lui	a5,0xa0000
80000b60:	4807a023          	sw	zero,1152(a5) # a0000480 <_eusrstack+0xfff00480>
80000b64:	a00007b7          	lui	a5,0xa0000
80000b68:	5007a783          	lw	a5,1280(a5) # a0000500 <_eusrstack+0xfff00500>
80000b6c:	00178713          	addi	a4,a5,1
80000b70:	a00007b7          	lui	a5,0xa0000
80000b74:	50e7a023          	sw	a4,1280(a5) # a0000500 <_eusrstack+0xfff00500>
80000b78:	0900006f          	j	80000c08 <_write+0xf0>
80000b7c:	fe842703          	lw	a4,-24(s0)
80000b80:	00900793          	li	a5,9
80000b84:	02f71063          	bne	a4,a5,80000ba4 <_write+0x8c>
80000b88:	a00007b7          	lui	a5,0xa0000
80000b8c:	4807a783          	lw	a5,1152(a5) # a0000480 <_eusrstack+0xfff00480>
80000b90:	00478793          	addi	a5,a5,4
80000b94:	ffb7f713          	andi	a4,a5,-5
80000b98:	a00007b7          	lui	a5,0xa0000
80000b9c:	48e7a023          	sw	a4,1152(a5) # a0000480 <_eusrstack+0xfff00480>
80000ba0:	0680006f          	j	80000c08 <_write+0xf0>
80000ba4:	a00007b7          	lui	a5,0xa0000
80000ba8:	5007a783          	lw	a5,1280(a5) # a0000500 <_eusrstack+0xfff00500>
80000bac:	00078713          	mv	a4,a5
80000bb0:	a00007b7          	lui	a5,0xa0000
80000bb4:	00078793          	mv	a5,a5
80000bb8:	0047a783          	lw	a5,4(a5) # a0000004 <_eusrstack+0xfff00004>
80000bbc:	02f77733          	remu	a4,a4,a5
80000bc0:	a00007b7          	lui	a5,0xa0000
80000bc4:	4807a583          	lw	a1,1152(a5) # a0000480 <_eusrstack+0xfff00480>
80000bc8:	fe842683          	lw	a3,-24(s0)
80000bcc:	a00007b7          	lui	a5,0xa0000
80000bd0:	58078613          	addi	a2,a5,1408 # a0000580 <_eusrstack+0xfff00580>
80000bd4:	00070793          	mv	a5,a4
80000bd8:	00279793          	slli	a5,a5,0x2
80000bdc:	00e787b3          	add	a5,a5,a4
80000be0:	00479793          	slli	a5,a5,0x4
80000be4:	00b787b3          	add	a5,a5,a1
80000be8:	00279793          	slli	a5,a5,0x2
80000bec:	00f607b3          	add	a5,a2,a5
80000bf0:	00d7a023          	sw	a3,0(a5)
80000bf4:	a00007b7          	lui	a5,0xa0000
80000bf8:	4807a783          	lw	a5,1152(a5) # a0000480 <_eusrstack+0xfff00480>
80000bfc:	00178713          	addi	a4,a5,1
80000c00:	a00007b7          	lui	a5,0xa0000
80000c04:	48e7a023          	sw	a4,1152(a5) # a0000480 <_eusrstack+0xfff00480>
80000c08:	a00007b7          	lui	a5,0xa0000
80000c0c:	00078793          	mv	a5,a5
80000c10:	0007a783          	lw	a5,0(a5) # a0000000 <_eusrstack+0xfff00000>
80000c14:	a0000737          	lui	a4,0xa0000
80000c18:	48072703          	lw	a4,1152(a4) # a0000480 <_eusrstack+0xfff00480>
80000c1c:	02e79063          	bne	a5,a4,80000c3c <_write+0x124>
80000c20:	a00007b7          	lui	a5,0xa0000
80000c24:	4807a023          	sw	zero,1152(a5) # a0000480 <_eusrstack+0xfff00480>
80000c28:	a00007b7          	lui	a5,0xa0000
80000c2c:	5007a783          	lw	a5,1280(a5) # a0000500 <_eusrstack+0xfff00500>
80000c30:	00178713          	addi	a4,a5,1
80000c34:	a00007b7          	lui	a5,0xa0000
80000c38:	50e7a023          	sw	a4,1280(a5) # a0000500 <_eusrstack+0xfff00500>
80000c3c:	a00007b7          	lui	a5,0xa0000
80000c40:	00078793          	mv	a5,a5
80000c44:	0047a703          	lw	a4,4(a5) # a0000004 <_eusrstack+0xfff00004>
80000c48:	a00007b7          	lui	a5,0xa0000
80000c4c:	00078793          	mv	a5,a5
80000c50:	00c7a783          	lw	a5,12(a5) # a000000c <_eusrstack+0xfff0000c>
80000c54:	00f707b3          	add	a5,a4,a5
80000c58:	a0000737          	lui	a4,0xa0000
80000c5c:	50072703          	lw	a4,1280(a4) # a0000500 <_eusrstack+0xfff00500>
80000c60:	08e79863          	bne	a5,a4,80000cf0 <_write+0x1d8>
80000c64:	a00007b7          	lui	a5,0xa0000
80000c68:	00078793          	mv	a5,a5
80000c6c:	0047a703          	lw	a4,4(a5) # a0000004 <_eusrstack+0xfff00004>
80000c70:	a00007b7          	lui	a5,0xa0000
80000c74:	00078793          	mv	a5,a5
80000c78:	00c7a783          	lw	a5,12(a5) # a000000c <_eusrstack+0xfff0000c>
80000c7c:	00f70733          	add	a4,a4,a5
80000c80:	a00007b7          	lui	a5,0xa0000
80000c84:	00078793          	mv	a5,a5
80000c88:	0047a783          	lw	a5,4(a5) # a0000004 <_eusrstack+0xfff00004>
80000c8c:	02f777b3          	remu	a5,a4,a5
80000c90:	fef42223          	sw	a5,-28(s0)
80000c94:	a00007b7          	lui	a5,0xa0000
80000c98:	00078793          	mv	a5,a5
80000c9c:	00c7a783          	lw	a5,12(a5) # a000000c <_eusrstack+0xfff0000c>
80000ca0:	00178713          	addi	a4,a5,1
80000ca4:	a00007b7          	lui	a5,0xa0000
80000ca8:	00078793          	mv	a5,a5
80000cac:	00e7a623          	sw	a4,12(a5) # a000000c <_eusrstack+0xfff0000c>
80000cb0:	fe442703          	lw	a4,-28(s0)
80000cb4:	00070793          	mv	a5,a4
80000cb8:	00279793          	slli	a5,a5,0x2
80000cbc:	00e787b3          	add	a5,a5,a4
80000cc0:	00679793          	slli	a5,a5,0x6
80000cc4:	a0000737          	lui	a4,0xa0000
80000cc8:	58070713          	addi	a4,a4,1408 # a0000580 <_eusrstack+0xfff00580>
80000ccc:	00e78733          	add	a4,a5,a4
80000cd0:	a00007b7          	lui	a5,0xa0000
80000cd4:	00078793          	mv	a5,a5
80000cd8:	0007a783          	lw	a5,0(a5) # a0000000 <_eusrstack+0xfff00000>
80000cdc:	00279793          	slli	a5,a5,0x2
80000ce0:	00078613          	mv	a2,a5
80000ce4:	00000593          	li	a1,0
80000ce8:	00070513          	mv	a0,a4
80000cec:	cf0ff0ef          	jal	ra,800001dc <memset>
80000cf0:	fec42783          	lw	a5,-20(s0)
80000cf4:	00178793          	addi	a5,a5,1
80000cf8:	fef42623          	sw	a5,-20(s0)
80000cfc:	fec42703          	lw	a4,-20(s0)
80000d00:	fd442783          	lw	a5,-44(s0)
80000d04:	e2f74ce3          	blt	a4,a5,80000b3c <_write+0x24>
80000d08:	00078513          	mv	a0,a5
80000d0c:	02c12083          	lw	ra,44(sp)
80000d10:	02812403          	lw	s0,40(sp)
80000d14:	03010113          	addi	sp,sp,48
80000d18:	00008067          	ret

80000d1c <main>:
80000d1c:	fe010113          	addi	sp,sp,-32
80000d20:	00112e23          	sw	ra,28(sp)
80000d24:	00812c23          	sw	s0,24(sp)
80000d28:	02010413          	addi	s0,sp,32
80000d2c:	a00007b7          	lui	a5,0xa0000
80000d30:	58078793          	addi	a5,a5,1408 # a0000580 <_eusrstack+0xfff00580>
80000d34:	05800713          	li	a4,88
80000d38:	00e7a023          	sw	a4,0(a5)
80000d3c:	800067b7          	lui	a5,0x80006
80000d40:	2f878513          	addi	a0,a5,760 # 800062f8 <_eusrstack+0xdff062f8>
80000d44:	d00ff0ef          	jal	ra,80000244 <puts>
80000d48:	a00027b7          	lui	a5,0xa0002
80000d4c:	50078793          	addi	a5,a5,1280 # a0002500 <_eusrstack+0xfff02500>
80000d50:	04200713          	li	a4,66
80000d54:	00e7a023          	sw	a4,0(a5)
80000d58:	a00007b7          	lui	a5,0xa0000
80000d5c:	00078793          	mv	a5,a5
80000d60:	a0003737          	lui	a4,0xa0003
80000d64:	d0070713          	addi	a4,a4,-768 # a0002d00 <_eusrstack+0xfff02d00>
80000d68:	04e7a823          	sw	a4,80(a5) # a0000050 <_eusrstack+0xfff00050>
80000d6c:	1b100793          	li	a5,433
80000d70:	01079713          	slli	a4,a5,0x10
80000d74:	01075713          	srli	a4,a4,0x10
80000d78:	a00037b7          	lui	a5,0xa0003
80000d7c:	d0078793          	addi	a5,a5,-768 # a0002d00 <_eusrstack+0xfff02d00>
80000d80:	00e79023          	sh	a4,0(a5)
80000d84:	00100793          	li	a5,1
80000d88:	01079713          	slli	a4,a5,0x10
80000d8c:	01075713          	srli	a4,a4,0x10
80000d90:	a00037b7          	lui	a5,0xa0003
80000d94:	d0078793          	addi	a5,a5,-768 # a0002d00 <_eusrstack+0xfff02d00>
80000d98:	00e79123          	sh	a4,2(a5)
80000d9c:	a00037b7          	lui	a5,0xa0003
80000da0:	d0078793          	addi	a5,a5,-768 # a0002d00 <_eusrstack+0xfff02d00>
80000da4:	80001737          	lui	a4,0x80001
80000da8:	14070713          	addi	a4,a4,320 # 80001140 <_eusrstack+0xdff01140>
80000dac:	00e7a423          	sw	a4,8(a5)
80000db0:	a00037b7          	lui	a5,0xa0003
80000db4:	d0078793          	addi	a5,a5,-768 # a0002d00 <_eusrstack+0xfff02d00>
80000db8:	a0003737          	lui	a4,0xa0003
80000dbc:	d8070713          	addi	a4,a4,-640 # a0002d80 <_eusrstack+0xfff02d80>
80000dc0:	00e7a823          	sw	a4,16(a5)
80000dc4:	fe042623          	sw	zero,-20(s0)
80000dc8:	a00007b7          	lui	a5,0xa0000
80000dcc:	4807a023          	sw	zero,1152(a5) # a0000480 <_eusrstack+0xfff00480>
80000dd0:	a00007b7          	lui	a5,0xa0000
80000dd4:	00200713          	li	a4,2
80000dd8:	50e7a023          	sw	a4,1280(a5) # a0000500 <_eusrstack+0xfff00500>
80000ddc:	fec42583          	lw	a1,-20(s0)
80000de0:	800067b7          	lui	a5,0x80006
80000de4:	31078513          	addi	a0,a5,784 # 80006310 <_eusrstack+0xdff06310>
80000de8:	b28ff0ef          	jal	ra,80000110 <printf>
80000dec:	f00007b7          	lui	a5,0xf0000
80000df0:	0007a703          	lw	a4,0(a5) # f0000000 <_eusrstack+0x4ff00000>
80000df4:	f00007b7          	lui	a5,0xf0000
80000df8:	0107a783          	lw	a5,16(a5) # f0000010 <_eusrstack+0x4ff00010>
80000dfc:	00078613          	mv	a2,a5
80000e00:	00070593          	mv	a1,a4
80000e04:	800067b7          	lui	a5,0x80006
80000e08:	31478513          	addi	a0,a5,788 # 80006314 <_eusrstack+0xdff06314>
80000e0c:	b04ff0ef          	jal	ra,80000110 <printf>
80000e10:	f00007b7          	lui	a5,0xf0000
80000e14:	0047a703          	lw	a4,4(a5) # f0000004 <_eusrstack+0x4ff00004>
80000e18:	f00007b7          	lui	a5,0xf0000
80000e1c:	0147a783          	lw	a5,20(a5) # f0000014 <_eusrstack+0x4ff00014>
80000e20:	00078613          	mv	a2,a5
80000e24:	00070593          	mv	a1,a4
80000e28:	800067b7          	lui	a5,0x80006
80000e2c:	31478513          	addi	a0,a5,788 # 80006314 <_eusrstack+0xdff06314>
80000e30:	ae0ff0ef          	jal	ra,80000110 <printf>
80000e34:	f00007b7          	lui	a5,0xf0000
80000e38:	0087a703          	lw	a4,8(a5) # f0000008 <_eusrstack+0x4ff00008>
80000e3c:	f00007b7          	lui	a5,0xf0000
80000e40:	0187a783          	lw	a5,24(a5) # f0000018 <_eusrstack+0x4ff00018>
80000e44:	00078613          	mv	a2,a5
80000e48:	00070593          	mv	a1,a4
80000e4c:	800067b7          	lui	a5,0x80006
80000e50:	31478513          	addi	a0,a5,788 # 80006314 <_eusrstack+0xdff06314>
80000e54:	abcff0ef          	jal	ra,80000110 <printf>
80000e58:	f00007b7          	lui	a5,0xf0000
80000e5c:	0207a703          	lw	a4,32(a5) # f0000020 <_eusrstack+0x4ff00020>
80000e60:	f00007b7          	lui	a5,0xf0000
80000e64:	0287a783          	lw	a5,40(a5) # f0000028 <_eusrstack+0x4ff00028>
80000e68:	00078613          	mv	a2,a5
80000e6c:	00070593          	mv	a1,a4
80000e70:	800067b7          	lui	a5,0x80006
80000e74:	32078513          	addi	a0,a5,800 # 80006320 <_eusrstack+0xdff06320>
80000e78:	a98ff0ef          	jal	ra,80000110 <printf>
80000e7c:	f00007b7          	lui	a5,0xf0000
80000e80:	0047a783          	lw	a5,4(a5) # f0000004 <_eusrstack+0x4ff00004>
80000e84:	00479793          	slli	a5,a5,0x4
80000e88:	00c7d693          	srli	a3,a5,0xc
80000e8c:	f00007b7          	lui	a5,0xf0000
80000e90:	0007a783          	lw	a5,0(a5) # f0000000 <_eusrstack+0x4ff00000>
80000e94:	00579793          	slli	a5,a5,0x5
80000e98:	00c7d793          	srli	a5,a5,0xc
80000e9c:	a0002737          	lui	a4,0xa0002
80000ea0:	50070713          	addi	a4,a4,1280 # a0002500 <_eusrstack+0xfff02500>
80000ea4:	00569693          	slli	a3,a3,0x5
80000ea8:	00f687b3          	add	a5,a3,a5
80000eac:	00279793          	slli	a5,a5,0x2
80000eb0:	00f707b3          	add	a5,a4,a5
80000eb4:	05800713          	li	a4,88
80000eb8:	00e7a023          	sw	a4,0(a5)
80000ebc:	f00007b7          	lui	a5,0xf0000
80000ec0:	0147a783          	lw	a5,20(a5) # f0000014 <_eusrstack+0x4ff00014>
80000ec4:	00479793          	slli	a5,a5,0x4
80000ec8:	00c7d693          	srli	a3,a5,0xc
80000ecc:	f00007b7          	lui	a5,0xf0000
80000ed0:	0107a783          	lw	a5,16(a5) # f0000010 <_eusrstack+0x4ff00010>
80000ed4:	00579793          	slli	a5,a5,0x5
80000ed8:	00c7d793          	srli	a5,a5,0xc
80000edc:	a0002737          	lui	a4,0xa0002
80000ee0:	50070713          	addi	a4,a4,1280 # a0002500 <_eusrstack+0xfff02500>
80000ee4:	00569693          	slli	a3,a3,0x5
80000ee8:	00f687b3          	add	a5,a3,a5
80000eec:	00279793          	slli	a5,a5,0x2
80000ef0:	00f707b3          	add	a5,a4,a5
80000ef4:	04f00713          	li	a4,79
80000ef8:	00e7a023          	sw	a4,0(a5)
80000efc:	9b4ff0ef          	jal	ra,800000b0 <pcont>
80000f00:	fec42783          	lw	a5,-20(s0)
80000f04:	00178793          	addi	a5,a5,1
80000f08:	fef42623          	sw	a5,-20(s0)
80000f0c:	ebdff06f          	j	80000dc8 <main+0xac>

80000f10 <otherharts>:
80000f10:	fd010113          	addi	sp,sp,-48
80000f14:	02112623          	sw	ra,44(sp)
80000f18:	02812423          	sw	s0,40(sp)
80000f1c:	03010413          	addi	s0,sp,48
80000f20:	fca42e23          	sw	a0,-36(s0)
80000f24:	fdc42783          	lw	a5,-36(s0)
80000f28:	fef42623          	sw	a5,-20(s0)
80000f2c:	a00037b7          	lui	a5,0xa0003
80000f30:	d8078793          	addi	a5,a5,-640 # a0002d80 <_eusrstack+0xfff02d80>
80000f34:	00001737          	lui	a4,0x1
80000f38:	00e7a623          	sw	a4,12(a5)
80000f3c:	a00037b7          	lui	a5,0xa0003
80000f40:	d8078793          	addi	a5,a5,-640 # a0002d80 <_eusrstack+0xfff02d80>
80000f44:	00001737          	lui	a4,0x1
80000f48:	00e7a823          	sw	a4,16(a5)
80000f4c:	a00037b7          	lui	a5,0xa0003
80000f50:	d8078793          	addi	a5,a5,-640 # a0002d80 <_eusrstack+0xfff02d80>
80000f54:	00001737          	lui	a4,0x1
80000f58:	00e7a023          	sw	a4,0(a5)
80000f5c:	a00037b7          	lui	a5,0xa0003
80000f60:	d8078793          	addi	a5,a5,-640 # a0002d80 <_eusrstack+0xfff02d80>
80000f64:	0007a703          	lw	a4,0(a5)
80000f68:	000027b7          	lui	a5,0x2
80000f6c:	00e7d863          	bge	a5,a4,80000f7c <otherharts+0x6c>
80000f70:	a00037b7          	lui	a5,0xa0003
80000f74:	d8078793          	addi	a5,a5,-640 # a0002d80 <_eusrstack+0xfff02d80>
80000f78:	0007a023          	sw	zero,0(a5)
80000f7c:	fec42783          	lw	a5,-20(s0)
80000f80:	00178793          	addi	a5,a5,1
80000f84:	fef42623          	sw	a5,-20(s0)
80000f88:	fec42703          	lw	a4,-20(s0)
80000f8c:	3e800793          	li	a5,1000
80000f90:	02f74733          	div	a4,a4,a5
80000f94:	00a00793          	li	a5,10
80000f98:	02f767b3          	rem	a5,a4,a5
80000f9c:	03078613          	addi	a2,a5,48
80000fa0:	fdc42783          	lw	a5,-36(s0)
80000fa4:	41f7d713          	srai	a4,a5,0x1f
80000fa8:	00777713          	andi	a4,a4,7
80000fac:	00f707b3          	add	a5,a4,a5
80000fb0:	4037d793          	srai	a5,a5,0x3
80000fb4:	00078693          	mv	a3,a5
80000fb8:	fdc42703          	lw	a4,-36(s0)
80000fbc:	41f75793          	srai	a5,a4,0x1f
80000fc0:	01d7d793          	srli	a5,a5,0x1d
80000fc4:	00f70733          	add	a4,a4,a5
80000fc8:	00777713          	andi	a4,a4,7
80000fcc:	40f707b3          	sub	a5,a4,a5
80000fd0:	00279793          	slli	a5,a5,0x2
80000fd4:	a0002737          	lui	a4,0xa0002
80000fd8:	50070713          	addi	a4,a4,1280 # a0002500 <_eusrstack+0xfff02500>
80000fdc:	00569693          	slli	a3,a3,0x5
80000fe0:	00f687b3          	add	a5,a3,a5
80000fe4:	00279793          	slli	a5,a5,0x2
80000fe8:	00f707b3          	add	a5,a4,a5
80000fec:	00c7a023          	sw	a2,0(a5)
80000ff0:	fec42703          	lw	a4,-20(s0)
80000ff4:	06400793          	li	a5,100
80000ff8:	02f74733          	div	a4,a4,a5
80000ffc:	00a00793          	li	a5,10
80001000:	02f767b3          	rem	a5,a4,a5
80001004:	03078613          	addi	a2,a5,48
80001008:	fdc42783          	lw	a5,-36(s0)
8000100c:	41f7d713          	srai	a4,a5,0x1f
80001010:	00777713          	andi	a4,a4,7
80001014:	00f707b3          	add	a5,a4,a5
80001018:	4037d793          	srai	a5,a5,0x3
8000101c:	00078693          	mv	a3,a5
80001020:	fdc42703          	lw	a4,-36(s0)
80001024:	41f75793          	srai	a5,a4,0x1f
80001028:	01d7d793          	srli	a5,a5,0x1d
8000102c:	00f70733          	add	a4,a4,a5
80001030:	00777713          	andi	a4,a4,7
80001034:	40f707b3          	sub	a5,a4,a5
80001038:	00279793          	slli	a5,a5,0x2
8000103c:	00178793          	addi	a5,a5,1
80001040:	a0002737          	lui	a4,0xa0002
80001044:	50070713          	addi	a4,a4,1280 # a0002500 <_eusrstack+0xfff02500>
80001048:	00569693          	slli	a3,a3,0x5
8000104c:	00f687b3          	add	a5,a3,a5
80001050:	00279793          	slli	a5,a5,0x2
80001054:	00f707b3          	add	a5,a4,a5
80001058:	00c7a023          	sw	a2,0(a5)
8000105c:	fec42703          	lw	a4,-20(s0)
80001060:	00a00793          	li	a5,10
80001064:	02f74733          	div	a4,a4,a5
80001068:	00a00793          	li	a5,10
8000106c:	02f767b3          	rem	a5,a4,a5
80001070:	03078613          	addi	a2,a5,48
80001074:	fdc42783          	lw	a5,-36(s0)
80001078:	41f7d713          	srai	a4,a5,0x1f
8000107c:	00777713          	andi	a4,a4,7
80001080:	00f707b3          	add	a5,a4,a5
80001084:	4037d793          	srai	a5,a5,0x3
80001088:	00078693          	mv	a3,a5
8000108c:	fdc42703          	lw	a4,-36(s0)
80001090:	41f75793          	srai	a5,a4,0x1f
80001094:	01d7d793          	srli	a5,a5,0x1d
80001098:	00f70733          	add	a4,a4,a5
8000109c:	00777713          	andi	a4,a4,7
800010a0:	40f707b3          	sub	a5,a4,a5
800010a4:	00279793          	slli	a5,a5,0x2
800010a8:	00278793          	addi	a5,a5,2
800010ac:	a0002737          	lui	a4,0xa0002
800010b0:	50070713          	addi	a4,a4,1280 # a0002500 <_eusrstack+0xfff02500>
800010b4:	00569693          	slli	a3,a3,0x5
800010b8:	00f687b3          	add	a5,a3,a5
800010bc:	00279793          	slli	a5,a5,0x2
800010c0:	00f707b3          	add	a5,a4,a5
800010c4:	00c7a023          	sw	a2,0(a5)
800010c8:	fec42703          	lw	a4,-20(s0)
800010cc:	00a00793          	li	a5,10
800010d0:	02f767b3          	rem	a5,a4,a5
800010d4:	03078613          	addi	a2,a5,48
800010d8:	fdc42783          	lw	a5,-36(s0)
800010dc:	41f7d713          	srai	a4,a5,0x1f
800010e0:	00777713          	andi	a4,a4,7
800010e4:	00f707b3          	add	a5,a4,a5
800010e8:	4037d793          	srai	a5,a5,0x3
800010ec:	00078693          	mv	a3,a5
800010f0:	fdc42703          	lw	a4,-36(s0)
800010f4:	41f75793          	srai	a5,a4,0x1f
800010f8:	01d7d793          	srli	a5,a5,0x1d
800010fc:	00f70733          	add	a4,a4,a5
80001100:	00777713          	andi	a4,a4,7
80001104:	40f707b3          	sub	a5,a4,a5
80001108:	00279793          	slli	a5,a5,0x2
8000110c:	00378793          	addi	a5,a5,3
80001110:	a0002737          	lui	a4,0xa0002
80001114:	50070713          	addi	a4,a4,1280 # a0002500 <_eusrstack+0xfff02500>
80001118:	00569693          	slli	a3,a3,0x5
8000111c:	00f687b3          	add	a5,a3,a5
80001120:	00279793          	slli	a5,a5,0x2
80001124:	00f707b3          	add	a5,a4,a5
80001128:	00c7a023          	sw	a2,0(a5)
8000112c:	f85fe0ef          	jal	ra,800000b0 <pcont>
80001130:	dfdff06f          	j	80000f2c <otherharts+0x1c>
	...

80001140 <pistol_Data>:
80001140:	ffffffe8 00000055 0000024a 01659eff     ....U...J.....e.
80001150:	ffffffff 00000046 0000024e 01699afe     ....F...N.....i.
80001160:	00000001 0000005d 00000248 01659eff     ....]...H.....e.
80001170:	ffffffde 00000041 ffffffc3 01659eff     ....A.........e.
80001180:	ffffffdf 00000042 ffffff2d 01659eff     ....B...-.....e.
80001190:	ffffffc1 00000024 0000024e 01699afe     ....$...N.....i.
800011a0:	ffffffba 00000005 ffffff2d 01659eff     ........-.....e.
800011b0:	ffffffc1 00000024 0000024e 01699afe     ....$...N.....i.
800011c0:	ffffffc4 00000028 ffffff2d 01659eff     ....(...-.....e.
800011d0:	ffffffba 00000005 ffffff2d 01659eff     ........-.....e.
800011e0:	ffffffbf ffffffde 0000024d 01689bfe     ........M.....h.
800011f0:	ffffffb7 00000001 0000024e 017591fb     ........N.....u.
80001200:	ffffffc3 ffffffe2 ffffff2d 01659eff     ........-.....e.
80001210:	ffffffe3 ffffffcf 00000242 01659eff     ........B.....e.
80001220:	ffffffbf ffffffde 0000024d 01689bfe     ........M.....h.
80001230:	00000045 00000002 ffffff2f 01659eff     E......./.....e.
80001240:	0000003a ffffffdb 0000024e 016f95fc     :.......N.....o.
80001250:	0000003d ffffffdf ffffff2d 01659eff     =.......-.....e.
80001260:	00000045 00000002 ffffff2f 01659eff     E......./.....e.
80001270:	0000003b 00000021 0000024e 01689bfe     ;...!...N.....h.
80001280:	00000041 ffffffff 00000250 01659eff     A.......P.....e.
80001290:	00000025 00000040 ffffff71 01659eff     %...@...q.....e.
800012a0:	00000022 0000003c 00000201 01659eff     "...<.........e.
800012b0:	0000003b 00000021 0000024e 01689bfe     ;...!...N.....h.
800012c0:	00000001 0000005d 00000248 01659eff     ....]...H.....e.
800012d0:	ffffffff 00000046 0000024e 01699afe     ....F...N.....i.
800012e0:	00000022 0000003c 0000024e 017194fc     "...<...N.....q.
800012f0:	ffffffc3 ffffffe2 ffffff2d 01659eff     ........-.....e.
80001300:	ffffffc4 00000028 ffffff2d 01659eff     ....(...-.....e.
80001310:	00000002 0000004a ffffff2e 01659eff     ....J.........e.
80001320:	ffffffbf ffffffde 0000024d 01689bfe     ........M.....h.
80001330:	ffffffe3 ffffffcf 00000242 01659eff     ........B.....e.
80001340:	00000002 ffffffd3 00000243 01659eff     ........C.....e.
80001350:	ffffffbf ffffffde 0000024d 01689bfe     ........M.....h.
80001360:	00000002 ffffffd3 00000243 01659eff     ........C.....e.
80001370:	00000013 ffffffcc 00000245 01659eff     ........E.....e.
80001380:	ffffffbf ffffffde 0000024d 01689bfe     ........M.....h.
80001390:	00000013 ffffffcc 00000245 01659eff     ........E.....e.
800013a0:	0000003a ffffffdb 0000024e 016f95fc     :.......N.....o.
800013b0:	ffffffdd 00000071 ffffff77 01659eff     ....q...w.....e.
800013c0:	ffffffdf 00000041 ffffff75 01659eff     ....A...u.....e.
800013d0:	ffffffde 00000041 ffffffc3 01659eff     ....A.........e.
800013e0:	00000000 00000079 ffffff75 01659eff     ....y...u.....e.
800013f0:	00000002 0000004a ffffff73 01659eff     ....J...s.....e.
80001400:	00000002 0000004a ffffff74 01659eff     ....J...t.....e.
80001410:	00000000 00000079 ffffff75 01659eff     ....y...u.....e.
80001420:	00000002 0000004a ffffff73 01659eff     ....J...s.....e.
80001430:	00000002 0000004a ffffff2e 01659eff     ....J.........e.
80001440:	ffffffdd 00000071 ffffff77 01659eff     ....q...w.....e.
80001450:	00000002 0000004a ffffff73 01659eff     ....J...s.....e.
80001460:	00000000 00000079 ffffff75 01659eff     ....y...u.....e.
80001470:	00000002 0000004a ffffff2e 01659eff     ....J.........e.
80001480:	ffffffdd 00000071 ffffff77 01659eff     ....q...w.....e.
80001490:	00000000 00000079 ffffff75 01659eff     ....y...u.....e.
800014a0:	ffffffdf 00000041 ffffff75 01659eff     ....A...u.....e.
800014b0:	ffffffdd 00000071 ffffff77 01659eff     ....q...w.....e.
800014c0:	ffffffdf 00000042 ffffff2d 01659eff     ....B...-.....e.
800014d0:	00000029 00000071 ffffff73 01659eff     )...q...s.....e.
800014e0:	00000025 00000040 ffffff71 01659eff     %...@...q.....e.
800014f0:	00000025 00000040 ffffff2e 01659eff     %...@.........e.
80001500:	00000029 00000071 ffffff73 01659eff     )...q...s.....e.
80001510:	00000002 0000004a ffffff74 01659eff     ....J...t.....e.
80001520:	00000025 00000040 ffffff71 01659eff     %...@...q.....e.
80001530:	00000029 00000071 ffffff73 01659eff     )...q...s.....e.
80001540:	00000025 00000040 ffffff2e 01659eff     %...@.........e.
80001550:	00000002 0000004a ffffff2e 01659eff     ....J.........e.
80001560:	00000029 00000071 ffffff73 01659eff     )...q...s.....e.
80001570:	00000000 00000079 ffffff75 01659eff     ....y...u.....e.
80001580:	00000002 0000004a ffffff74 01659eff     ....J...t.....e.
80001590:	00000002 0000004a ffffff73 01659eff     ....J...s.....e.
800015a0:	00000000 00000079 ffffff75 01659eff     ....y...u.....e.
800015b0:	00000002 0000004a ffffff2e 01659eff     ....J.........e.
800015c0:	00000000 00000079 ffffff75 01659eff     ....y...u.....e.
800015d0:	00000002 0000004a ffffff74 01659eff     ....J...t.....e.
800015e0:	00000002 0000004a ffffff73 01659eff     ....J...s.....e.
800015f0:	00000001 0000004a ffffffc3 01659eff     ....J.........e.
80001600:	ffffffdd 00000071 ffffff77 01659eff     ....q...w.....e.
80001610:	ffffffde 00000041 ffffffc3 01659eff     ....A.........e.
80001620:	00000000 00000079 ffffff75 01659eff     ....y...u.....e.
80001630:	00000002 0000004a ffffff74 01659eff     ....J...t.....e.
80001640:	00000001 0000004a ffffffc1 01659eff     ....J.........e.
80001650:	00000025 0000003f ffffffbf 01659eff     %...?.........e.
80001660:	00000029 00000071 ffffff73 01659eff     )...q...s.....e.
80001670:	00000001 0000004a ffffffc3 01659eff     ....J.........e.
80001680:	00000001 0000004a ffffffc1 01659eff     ....J.........e.
80001690:	00000001 0000004a ffffffc3 01659eff     ....J.........e.
800016a0:	00000000 00000079 ffffff75 01659eff     ....y...u.....e.
800016b0:	00000025 0000003f ffffffbf 01659eff     %...?.........e.
800016c0:	00000001 0000004a ffffffc3 01659eff     ....J.........e.
800016d0:	00000001 0000004a ffffffc1 01659eff     ....J.........e.
800016e0:	00000025 00000040 ffffff71 01659eff     %...@...q.....e.
800016f0:	00000029 00000071 ffffff73 01659eff     )...q...s.....e.
80001700:	00000025 0000003f ffffffbf 01659eff     %...?.........e.
80001710:	00000025 0000003f ffffffbf 01659eff     %...?.........e.
80001720:	00000001 0000004a ffffffc3 01659eff     ....J.........e.
80001730:	00000000 00000047 00000203 01659eff     ....G.........e.
80001740:	00000000 00000047 00000203 01659eff     ....G.........e.
80001750:	ffffffde 00000041 ffffffc3 01659eff     ....A.........e.
80001760:	ffffffdc 0000003e 00000204 01659eff     ....>.........e.
80001770:	00000001 0000005d 00000248 01659eff     ....]...H.....e.
80001780:	ffffffff 00000046 0000024e 01699afe     ....F...N.....i.
80001790:	00000000 00000047 00000203 01659eff     ....G.........e.
800017a0:	00000000 00000047 00000203 01659eff     ....G.........e.
800017b0:	ffffffe8 00000055 0000024a 01659eff     ....U...J.....e.
800017c0:	00000001 0000005d 00000248 01659eff     ....]...H.....e.
800017d0:	ffffffdc 0000003d 0000024e 016f95fc     ....=...N.....o.
800017e0:	ffffffe8 00000055 0000024a 01659eff     ....U...J.....e.
800017f0:	ffffffdc 0000003e 00000204 01659eff     ....>.........e.
80001800:	0000001c 00000056 0000024d 01659eff     ....V...M.....e.
80001810:	00000022 0000003c 0000024e 017194fc     "...<...N.....q.
80001820:	00000022 0000003c 00000201 01659eff     "...<.........e.
80001830:	00000000 00000047 00000203 01659eff     ....G.........e.
80001840:	0000001c 00000056 0000024d 01659eff     ....V...M.....e.
80001850:	00000022 0000003c 00000201 01659eff     "...<.........e.
80001860:	00000022 0000003c 0000024e 017194fc     "...<...N.....q.
80001870:	0000001c 00000056 0000024d 01659eff     ....V...M.....e.
80001880:	00000001 0000005d 00000248 01659eff     ....]...H.....e.
80001890:	ffffffff 00000046 0000024e 01699afe     ....F...N.....i.
800018a0:	00000001 0000005d 00000248 01659eff     ....]...H.....e.
800018b0:	00000000 00000047 00000203 01659eff     ....G.........e.
800018c0:	0000003a ffffffdb 0000024e 016f95fc     :.......N.....o.
800018d0:	00000041 ffffffff 00000250 01659eff     A.......P.....e.
800018e0:	0000003b 00000021 0000024e 01689bfe     ;...!...N.....h.
800018f0:	0000003f 00000025 ffffff2e 01659eff     ?...%.........e.
80001900:	00000045 00000002 ffffff2f 01659eff     E......./.....e.
80001910:	0000003d ffffffdf ffffff2d 01659eff     =.......-.....e.
80001920:	00000002 0000004a ffffff2e 01659eff     ....J.........e.
80001930:	00000000 00000079 ffffff75 01659eff     ....y...u.....e.
80001940:	00000029 00000071 ffffff73 01659eff     )...q...s.....e.
80001950:	00000001 0000004a ffffffc3 01659eff     ....J.........e.
80001960:	00000000 00000079 ffffff75 01659eff     ....y...u.....e.
80001970:	ffffffdd 00000071 ffffff77 01659eff     ....q...w.....e.
80001980:	00000029 00000071 ffffff73 01659eff     )...q...s.....e.
80001990:	00000000 00000079 ffffff75 01659eff     ....y...u.....e.
800019a0:	00000001 0000004a ffffffc3 01659eff     ....J.........e.
800019b0:	ffffffc6 fffffe9f ffffffbd 01659eff     ..............e.
800019c0:	ffffffb4 fffffe9f ffffffbd 01659eff     ..............e.
800019d0:	ffffffb3 fffffe78 ffffffc9 01659eff     ....x.........e.
800019e0:	00000027 fffffe70 ffffffde 01659eff     '...p.........e.
800019f0:	00000049 fffffefd ffffff53 01659eff     I.......S.....e.
80001a00:	00000048 ffffff90 ffffff61 01659eff     H.......a.....e.
80001a10:	ffffffbc ffffff00 ffffff51 01659eff     ........Q.....e.
80001a20:	ffffffbd fffffe6d ffffff43 01659eff     ....m...C.....e.
80001a30:	ffffffb3 fffffe78 ffffffc9 01659eff     ....x.........e.
80001a40:	ffffffb3 fffffe78 ffffffc9 01659eff     ....x.........e.
80001a50:	ffffffbd fffffe6d ffffff43 01659eff     ....m...C.....e.
80001a60:	0000004b fffffe6a ffffff45 01659eff     K...j...E.....e.
80001a70:	ffffffb8 ffffffcf ffffffef 01bdd0f0     ................
80001a80:	00000048 ffffffce ffffff3f 01659eff     H.......?.....e.
80001a90:	ffffffb6 ffffffd0 ffffff38 0197baf6     ........8.......
80001aa0:	ffffffb6 ffffffd0 ffffff38 0197baf6     ........8.......
80001ab0:	00000048 ffffffce ffffff3f 01659eff     H.......?.....e.
80001ac0:	00000048 ffffff90 ffffff61 01659eff     H.......a.....e.
80001ad0:	00000045 ffffffba ffffffe8 01c3d4ef     E...............
80001ae0:	0000002e fffffe9d ffffffbb 01659eff     ..............e.
80001af0:	00000048 ffffff90 ffffff61 01659eff     H.......a.....e.
80001b00:	00000048 ffffffce ffffff3f 01659eff     H.......?.....e.
80001b10:	00000045 ffffffba ffffffe8 01c3d4ef     E...............
80001b20:	00000048 ffffff90 ffffff61 01659eff     H.......a.....e.
80001b30:	ffffffb6 ffffffd0 ffffff38 0197baf6     ........8.......
80001b40:	ffffffb6 ffffff8f ffffff4c 01659eff     ........L.....e.
80001b50:	ffffffb3 fffffe78 ffffffc9 01659eff     ....x.........e.
80001b60:	ffffffb4 fffffe9f ffffffbd 01659eff     ..............e.
80001b70:	ffffffb6 ffffffd0 ffffff38 0197baf6     ........8.......
80001b80:	ffffffb3 fffffe78 ffffffc9 01659eff     ....x.........e.
80001b90:	ffffffbc ffffff00 ffffff51 01659eff     ........Q.....e.
80001ba0:	00000048 ffffff90 ffffff61 01659eff     H.......a.....e.
80001bb0:	00000049 fffffefd ffffff53 01659eff     I.......S.....e.
80001bc0:	ffffffc6 fffffe7e ffffff32 01659eff     ....~...2.....e.
80001bd0:	ffffffbd fffffe6d ffffff43 01659eff     ....m...C.....e.
80001be0:	ffffffbc ffffff00 ffffff51 01659eff     ........Q.....e.
80001bf0:	ffffffc6 fffffe7e ffffff32 01659eff     ....~...2.....e.
80001c00:	0000004b fffffe6a ffffff45 01659eff     K...j...E.....e.
80001c10:	ffffffbd fffffe6d ffffff43 01659eff     ....m...C.....e.
80001c20:	ffffffbc ffffff00 ffffff51 01659eff     ........Q.....e.
80001c30:	00000049 fffffefd ffffff53 01659eff     I.......S.....e.
80001c40:	0000003d fffffe84 ffffff2f 01659eff     =......./.....e.
80001c50:	0000004b fffffe6a ffffff45 01659eff     K...j...E.....e.
80001c60:	0000003d fffffe84 ffffff2f 01659eff     =......./.....e.
80001c70:	00000049 fffffefd ffffff53 01659eff     I.......S.....e.
80001c80:	ffffffc6 fffffe7e ffffff32 01659eff     ....~...2.....e.
80001c90:	0000003d fffffe84 ffffff2f 01659eff     =......./.....e.
80001ca0:	0000004b fffffe6a ffffff45 01659eff     K...j...E.....e.
80001cb0:	ffffffb3 fffffe78 ffffffc9 01659eff     ....x.........e.
80001cc0:	ffffffb6 ffffff8f ffffff4c 01659eff     ........L.....e.
80001cd0:	ffffffbc ffffff00 ffffff51 01659eff     ........Q.....e.
80001ce0:	ffffffbc ffffff00 ffffff51 01659eff     ........Q.....e.
80001cf0:	ffffffb6 ffffff8f ffffff4c 01659eff     ........L.....e.
80001d00:	00000048 ffffff90 ffffff61 01659eff     H.......a.....e.
80001d10:	00000048 ffffff90 ffffff61 01659eff     H.......a.....e.
80001d20:	ffffffb6 ffffff8f ffffff4c 01659eff     ........L.....e.
80001d30:	ffffffb6 ffffffd0 ffffff38 0197baf6     ........8.......
80001d40:	0000003d fffffe84 ffffff2f 01659eff     =......./.....e.
80001d50:	ffffffc6 fffffe7e ffffff32 01659eff     ....~...2.....e.
80001d60:	ffffffbc ffffff00 ffffff51 01659eff     ........Q.....e.
80001d70:	ffffffc6 fffffea0 ffffffbd 01659eff     ..............e.
80001d80:	0000002e fffffe9d ffffffbb 01659eff     ..............e.
80001d90:	00000045 ffffffba ffffffe8 01c3d4ef     E...............
80001da0:	0000004b fffffe6a ffffff45 01659eff     K...j...E.....e.
80001db0:	00000027 fffffe70 ffffffde 01659eff     '...p.........e.
80001dc0:	ffffffb3 fffffe78 ffffffc9 01659eff     ....x.........e.
80001dd0:	ffffffc6 fffffe9f ffffffbd 01659eff     ..............e.
80001de0:	ffffffb3 fffffe78 ffffffc9 01659eff     ....x.........e.
80001df0:	0000002e fffffe9d ffffffbb 01659eff     ..............e.
80001e00:	ffffffc6 fffffea0 ffffffbd 01659eff     ..............e.
80001e10:	ffffffb8 ffffffcf ffffffef 01bdd0f0     ................
80001e20:	ffffffb4 fffffe9f ffffffbd 01659eff     ..............e.
80001e30:	0000002e fffffe9d ffffffbb 01659eff     ..............e.
80001e40:	00000027 fffffe70 ffffffde 01659eff     '...p.........e.
80001e50:	00000048 ffffff90 ffffff61 01659eff     H.......a.....e.
80001e60:	ffffffb3 fffffe78 ffffffc9 01659eff     ....x.........e.
80001e70:	00000027 fffffe70 ffffffde 01659eff     '...p.........e.
80001e80:	0000002e fffffe9d ffffffbb 01659eff     ..............e.
80001e90:	ffffffe8 00000055 0000024a 01659eff     ....U...J.....e.
80001ea0:	ffffffdc 0000003d 0000024e 016f95fc     ....=...N.....o.
80001eb0:	ffffffff 00000046 0000024e 01699afe     ....F...N.....i.
80001ec0:	ffffffdc 0000003d 0000024e 016f95fc     ....=...N.....o.
80001ed0:	ffffffdc 0000003e 00000204 01659eff     ....>.........e.
80001ee0:	ffffffde 00000041 ffffffc3 01659eff     ....A.........e.
80001ef0:	ffffffde 00000041 ffffffc3 01659eff     ....A.........e.
80001f00:	ffffffdf 00000041 ffffff75 01659eff     ....A...u.....e.
80001f10:	ffffffdf 00000042 ffffff2d 01659eff     ....B...-.....e.
80001f20:	ffffffdf 00000042 ffffff2d 01659eff     ....B...-.....e.
80001f30:	ffffffc4 00000028 ffffff2d 01659eff     ....(...-.....e.
80001f40:	ffffffc1 00000024 0000024e 01699afe     ....$...N.....i.
80001f50:	ffffffc1 00000024 0000024e 01699afe     ....$...N.....i.
80001f60:	ffffffdc 0000003d 0000024e 016f95fc     ....=...N.....o.
80001f70:	ffffffde 00000041 ffffffc3 01659eff     ....A.........e.
80001f80:	ffffffba 00000005 ffffff2d 01659eff     ........-.....e.
80001f90:	ffffffb7 00000001 0000024e 017591fb     ........N.....u.
80001fa0:	ffffffc1 00000024 0000024e 01699afe     ....$...N.....i.
80001fb0:	ffffffba 00000005 ffffff2d 01659eff     ........-.....e.
80001fc0:	ffffffc3 ffffffe2 ffffff2d 01659eff     ........-.....e.
80001fd0:	ffffffbf ffffffde 0000024d 01689bfe     ........M.....h.
80001fe0:	ffffffc3 ffffffe2 ffffff2d 01659eff     ........-.....e.
80001ff0:	ffffffb6 ffffffd0 ffffff38 0197baf6     ........8.......
80002000:	ffffffe3 ffffffcf 00000242 01659eff     ........B.....e.
80002010:	00000045 00000002 ffffff2f 01659eff     E......./.....e.
80002020:	00000041 ffffffff 00000250 01659eff     A.......P.....e.
80002030:	0000003a ffffffdb 0000024e 016f95fc     :.......N.....o.
80002040:	00000045 00000002 ffffff2f 01659eff     E......./.....e.
80002050:	0000003f 00000025 ffffff2e 01659eff     ?...%.........e.
80002060:	0000003b 00000021 0000024e 01689bfe     ;...!...N.....h.
80002070:	0000003b 00000021 0000024e 01689bfe     ;...!...N.....h.
80002080:	0000003f 00000025 ffffff2e 01659eff     ?...%.........e.
80002090:	00000025 00000040 ffffff2e 01659eff     %...@.........e.
800020a0:	00000025 00000040 ffffff71 01659eff     %...@...q.....e.
800020b0:	00000025 0000003f ffffffbf 01659eff     %...?.........e.
800020c0:	00000022 0000003c 00000201 01659eff     "...<.........e.
800020d0:	0000003b 00000021 0000024e 01689bfe     ;...!...N.....h.
800020e0:	00000025 00000040 ffffff2e 01659eff     %...@.........e.
800020f0:	00000025 00000040 ffffff71 01659eff     %...@...q.....e.
80002100:	00000022 0000003c 00000201 01659eff     "...<.........e.
80002110:	00000022 0000003c 0000024e 017194fc     "...<...N.....q.
80002120:	0000003b 00000021 0000024e 01689bfe     ;...!...N.....h.
80002130:	00000002 0000004a ffffff2e 01659eff     ....J.........e.
80002140:	00000025 00000040 ffffff2e 01659eff     %...@.........e.
80002150:	0000003f 00000025 ffffff2e 01659eff     ?...%.........e.
80002160:	0000003f 00000025 ffffff2e 01659eff     ?...%.........e.
80002170:	0000003d ffffffdf ffffff2d 01659eff     =.......-.....e.
80002180:	ffffffc3 ffffffe2 ffffff2d 01659eff     ........-.....e.
80002190:	ffffffc3 ffffffe2 ffffff2d 01659eff     ........-.....e.
800021a0:	ffffffba 00000005 ffffff2d 01659eff     ........-.....e.
800021b0:	ffffffc4 00000028 ffffff2d 01659eff     ....(...-.....e.
800021c0:	ffffffc4 00000028 ffffff2d 01659eff     ....(...-.....e.
800021d0:	ffffffdf 00000042 ffffff2d 01659eff     ....B...-.....e.
800021e0:	00000002 0000004a ffffff2e 01659eff     ....J.........e.
800021f0:	00000002 0000004a ffffff2e 01659eff     ....J.........e.
80002200:	0000003f 00000025 ffffff2e 01659eff     ?...%.........e.
80002210:	ffffffc3 ffffffe2 ffffff2d 01659eff     ........-.....e.
80002220:	ffffffdd 00000071 ffffff77 01659eff     ....q...w.....e.
80002230:	ffffffdf 00000041 ffffff75 01659eff     ....A...u.....e.
80002240:	00000002 0000004a ffffff73 01659eff     ....J...s.....e.
80002250:	00000002 0000004a ffffff2e 01659eff     ....J.........e.
80002260:	ffffffdf 00000042 ffffff2d 01659eff     ....B...-.....e.
80002270:	ffffffdd 00000071 ffffff77 01659eff     ....q...w.....e.
80002280:	00000000 00000047 00000203 01659eff     ....G.........e.
80002290:	00000022 0000003c 00000201 01659eff     "...<.........e.
800022a0:	00000025 0000003f ffffffbf 01659eff     %...?.........e.
800022b0:	00000000 00000047 00000203 01659eff     ....G.........e.
800022c0:	00000001 0000004a ffffffc3 01659eff     ....J.........e.
800022d0:	ffffffde 00000041 ffffffc3 01659eff     ....A.........e.
800022e0:	00000000 00000047 00000203 01659eff     ....G.........e.
800022f0:	ffffffdc 0000003e 00000204 01659eff     ....>.........e.
80002300:	ffffffe8 00000055 0000024a 01659eff     ....U...J.....e.
80002310:	00000000 00000047 00000203 01659eff     ....G.........e.
80002320:	00000001 0000005d 00000248 01659eff     ....]...H.....e.
80002330:	0000001c 00000056 0000024d 01659eff     ....V...M.....e.
80002340:	ffffffc6 fffffe9f ffffffbd 01659eff     ..............e.
80002350:	ffffffc6 fffffea0 ffffffbd 01659eff     ..............e.
80002360:	ffffffb4 fffffe9f ffffffbd 01659eff     ..............e.
80002370:	00000027 fffffe70 ffffffde 01659eff     '...p.........e.
80002380:	0000004b fffffe6a ffffff45 01659eff     K...j...E.....e.
80002390:	00000049 fffffefd ffffff53 01659eff     I.......S.....e.
800023a0:	ffffffb8 ffffffcf ffffffef 01bdd0f0     ................
800023b0:	00000045 ffffffba ffffffe8 01c3d4ef     E...............
800023c0:	00000048 ffffffce ffffff3f 01659eff     H.......?.....e.
800023d0:	ffffffb4 fffffe9f ffffffbd 01659eff     ..............e.
800023e0:	ffffffb8 ffffffcf ffffffef 01bdd0f0     ................
800023f0:	ffffffb6 ffffffd0 ffffff38 0197baf6     ........8.......
80002400:	ffffffc6 fffffea0 ffffffbd 01659eff     ..............e.
80002410:	ffffffc6 fffffe9f ffffffbd 01659eff     ..............e.
80002420:	0000002e fffffe9d ffffffbb 01659eff     ..............e.
80002430:	ffffffc6 fffffea0 ffffffbd 01659eff     ..............e.
80002440:	00000045 ffffffba ffffffe8 01c3d4ef     E...............
80002450:	ffffffb8 ffffffcf ffffffef 01bdd0f0     ................
80002460:	ffffffb7 00000001 0000024e 017591fb     ........N.....u.
80002470:	0000003a ffffffdb 0000024e 016f95fc     :.......N.....o.
80002480:	00000022 0000003c 0000024e 017194fc     "...<...N.....q.
80002490:	00000022 0000003c 0000024e 017194fc     "...<...N.....q.
800024a0:	ffffffff 00000046 0000024e 01699afe     ....F...N.....i.
800024b0:	ffffffdc 0000003d 0000024e 016f95fc     ....=...N.....o.
800024c0:	ffffffdc 0000003d 0000024e 016f95fc     ....=...N.....o.
800024d0:	ffffffc1 00000024 0000024e 01699afe     ....$...N.....i.
800024e0:	ffffffb7 00000001 0000024e 017591fb     ........N.....u.
800024f0:	ffffffb7 00000001 0000024e 017591fb     ........N.....u.
80002500:	ffffffbf ffffffde 0000024d 01689bfe     ........M.....h.
80002510:	0000003a ffffffdb 0000024e 016f95fc     :.......N.....o.
80002520:	0000003a ffffffdb 0000024e 016f95fc     :.......N.....o.
80002530:	0000003b 00000021 0000024e 01689bfe     ;...!...N.....h.
80002540:	00000022 0000003c 0000024e 017194fc     "...<...N.....q.
80002550:	00000022 0000003c 0000024e 017194fc     "...<...N.....q.
80002560:	ffffffdc 0000003d 0000024e 016f95fc     ....=...N.....o.
80002570:	ffffffb7 00000001 0000024e 017591fb     ........N.....u.
80002580:	ffffffb8 ffffffcf ffffffef 01bdd0f0     ................
80002590:	ffffffb6 00000036 ffffffc5 01efede8     ....6...........
800025a0:	ffffffba fffffffc ffffff11 01efede8     ................
800025b0:	00000047 fffffff9 ffffff11 01efede8     G...............
800025c0:	00000044 00000033 ffffffc5 01efede8     D...3...........
800025d0:	00000045 ffffffba ffffffe8 01c3d4ef     E...............
800025e0:	ffffffba fffffffc ffffff11 01efede8     ................
800025f0:	00000048 ffffffce ffffff23 01efede8     H.......#.......
80002600:	ffffffb6 ffffffd0 ffffff38 0197baf6     ........8.......
80002610:	00000044 00000033 ffffffc5 01efede8     D...3...........
80002620:	ffffffb8 ffffffcf ffffffef 01bdd0f0     ................
80002630:	00000045 ffffffba ffffffe8 01c3d4ef     E...............
80002640:	00000045 ffffffba ffffffe8 01c3d4ef     E...............
80002650:	ffffffb6 ffffffd0 ffffff38 0197baf6     ........8.......
80002660:	00000048 ffffffce ffffff23 01efede8     H.......#.......
80002670:	00000044 00000033 ffffffc5 01efede8     D...3...........
80002680:	ffffffbd 0000003a ffffff23 01efede8     ....:...#.......
80002690:	ffffffb6 00000036 ffffffc5 01efede8     ....6...........
800026a0:	ffffffbd 0000003a ffffff23 01efede8     ....:...#.......
800026b0:	00000047 fffffff9 ffffff11 01efede8     G...............
800026c0:	ffffffba fffffffc ffffff11 01efede8     ................
800026d0:	ffffffb6 00000036 ffffffc5 01efede8     ....6...........
800026e0:	ffffffbd 0000003a ffffff23 01efede8     ....:...#.......
800026f0:	ffffffba fffffffc ffffff11 01efede8     ................
80002700:	00000047 fffffff9 ffffff11 01efede8     G...............
80002710:	0000004b 00000036 ffffff23 01efede8     K...6...#.......
80002720:	00000044 00000033 ffffffc5 01efede8     D...3...........
80002730:	ffffffba fffffffc ffffff11 01efede8     ................
80002740:	ffffffb6 ffffffd0 ffffff38 0197baf6     ........8.......
80002750:	ffffffb8 ffffffcf ffffffef 01bdd0f0     ................
80002760:	00000045 ffffffba ffffffe8 01c3d4ef     E...............
80002770:	00000048 ffffffce ffffff23 01efede8     H.......#.......
80002780:	00000047 fffffff9 ffffff11 01efede8     G...............
80002790:	ffffffb8 ffffffcf ffffffef 01bdd0f0     ................
800027a0:	ffffffb7 00000005 ffffffc6 01efede8     ................
800027b0:	00000045 ffffffba ffffffe8 01c3d4ef     E...............
800027c0:	00000046 00000000 000000f2 01efede8     F...............
800027d0:	ffffffc4 ffffffbb 000000cb 01efede8     ................
800027e0:	00000052 ffffffb8 000000cc 01efede8     R...............
800027f0:	00000045 00000002 ffffffd0 01efede8     E...............
80002800:	00000046 00000000 000000f2 01efede8     F...............
80002810:	00000045 ffffffba ffffffe8 01c3d4ef     E...............
80002820:	ffffffb8 00000002 000000f1 01efede8     ................
80002830:	ffffffb7 00000005 ffffffc6 01efede8     ................
80002840:	ffffffb8 ffffffcf ffffffef 01bdd0f0     ................
80002850:	ffffffc4 ffffffbb 000000cb 01efede8     ................
80002860:	00000045 ffffffba ffffffe8 01c3d4ef     E...............
80002870:	00000052 ffffffb8 000000cc 01efede8     R...............
80002880:	ffffffb7 00000005 ffffffc6 01efede8     ................
80002890:	ffffffb8 00000002 000000f1 01efede8     ................
800028a0:	00000046 00000000 000000f2 01efede8     F...............
800028b0:	00000046 00000000 000000f2 01efede8     F...............
800028c0:	00000052 ffffffb8 000000cc 01efede8     R...............
800028d0:	00000045 ffffffba ffffffe8 01c3d4ef     E...............
800028e0:	ffffffb8 ffffffcf ffffffef 01bdd0f0     ................
800028f0:	ffffffc4 ffffffbb 000000cb 01efede8     ................
80002900:	ffffffb8 00000002 000000f1 01efede8     ................
80002910:	ffffffb7 00000005 ffffffc6 01efede8     ................
80002920:	00000045 00000002 ffffffd0 01efede8     E...............
80002930:	00000045 ffffffba ffffffe8 01c3d4ef     E...............
80002940:	00000046 00000000 000000f2 01efede8     F...............
80002950:	00000045 00000002 ffffffd0 01efede8     E...............
80002960:	ffffffb7 00000005 ffffffc6 01efede8     ................
80002970:	ffffffb9 00000004 ffffffd6 01efede8     ................
80002980:	00000047 00000000 00000000 01e4e1d9     G...............
80002990:	00000046 00000000 00000076 01eae8e1     F.......v.......
800029a0:	00000043 00000050 00000050 01d6d0c4     C...P...P.......
800029b0:	ffffffb9 00000003 00000075 01e6e3db     ........u.......
800029c0:	00000046 00000000 00000076 01eae8e1     F.......v.......
800029d0:	ffffffb9 00000004 ffffffd6 01efede8     ................
800029e0:	00000044 00000051 ffffffb1 01efede8     D...Q...........
800029f0:	00000047 00000001 ffffffd7 01efede8     G...............
80002a00:	ffffffa8 00000003 ffffffd6 01efede8     ................
80002a10:	ffffffb7 00000054 ffffffb0 01efede8     ....T...........
80002a20:	ffffffb9 00000004 ffffffd6 01efede8     ................
80002a30:	ffffffa8 00000002 00000058 01efede8     ........X.......
80002a40:	ffffffb9 00000003 0000002e 01e7e4dc     ................
80002a50:	ffffffb9 00000003 00000058 01e3dfd7     ........X.......
80002a60:	ffffffa8 00000003 ffffffd6 01efede8     ................
80002a70:	ffffffb9 00000004 00000001 01e5e1d9     ................
80002a80:	ffffffa8 00000003 00000001 01efede8     ................
80002a90:	ffffffb8 00000065 00000025 01efede8     ....e...%.......
80002aa0:	ffffffb6 00000054 0000002d 01e4e1d9     ....T...-.......
80002ab0:	ffffffb6 00000054 00000005 01e4e0d8     ....T...........
80002ac0:	ffffffa6 0000002f 00000018 01efede8     ..../...........
80002ad0:	ffffffb9 00000003 0000002e 01e7e4dc     ................
80002ae0:	ffffffa8 00000003 0000002e 01efede8     ................
80002af0:	ffffffa6 0000002f 00000019 01efede8     ..../...........
80002b00:	ffffffb7 0000002f 00000018 01dbd6cb     ..../...........
80002b10:	ffffffa6 0000002f 00000018 01efede8     ..../...........
80002b20:	ffffffa6 0000002f 00000019 01efede8     ..../...........
80002b30:	ffffffb7 00000043 00000037 01e6e3db     ....C...7.......
80002b40:	ffffffb7 00000030 00000019 01eae7e0     ....0...........
80002b50:	ffffffa8 00000002 00000058 01efede8     ........X.......
80002b60:	ffffffb7 00000043 00000037 01e6e3db     ....C...7.......
80002b70:	ffffffa6 00000043 00000037 01efede8     ....C...7.......
80002b80:	ffffffa6 0000002f 00000019 01efede8     ..../...........
80002b90:	ffffffa8 00000003 0000002e 01efede8     ................
80002ba0:	ffffffa8 00000002 00000058 01efede8     ........X.......
80002bb0:	ffffffa6 00000043 00000037 01efede8     ....C...7.......
80002bc0:	ffffffb6 00000054 0000002d 01e4e1d9     ....T...-.......
80002bd0:	ffffffa5 00000053 0000002d 01efede8     ....S...-.......
80002be0:	ffffffa6 00000043 00000037 01efede8     ....C...7.......
80002bf0:	ffffffb7 00000030 00000019 01eae7e0     ....0...........
80002c00:	ffffffb7 00000043 00000037 01e6e3db     ....C...7.......
80002c10:	ffffffa5 00000053 00000005 01efede8     ....S...........
80002c20:	ffffffb7 00000030 00000019 01eae7e0     ....0...........
80002c30:	ffffffa6 0000002f 00000018 01efede8     ..../...........
80002c40:	ffffffa6 0000002f 00000018 01efede8     ..../...........
80002c50:	ffffffa5 00000053 0000002d 01efede8     ....S...-.......
80002c60:	ffffffa5 00000053 00000005 01efede8     ....S...........
80002c70:	ffffffa8 00000003 ffffffd6 01efede8     ................
80002c80:	ffffffb8 0000001a fffffff8 01e8e5de     ................
80002c90:	ffffffb9 00000004 ffffffd6 01efede8     ................
80002ca0:	ffffffa7 00000019 fffffff7 01efede8     ................
80002cb0:	ffffffb9 00000004 00000001 01e5e1d9     ................
80002cc0:	ffffffb8 0000001a fffffff8 01e8e5de     ................
80002cd0:	ffffffa7 00000019 fffffff7 01efede8     ................
80002ce0:	ffffffa8 00000003 ffffffd6 01efede8     ................
80002cf0:	ffffffa8 00000003 00000001 01efede8     ................
80002d00:	ffffffb6 00000054 ffffffdc 01dfdbd1     ....T...........
80002d10:	ffffffb6 00000054 ffffffdb 01e8e5de     ....T...........
80002d20:	ffffffb7 00000054 ffffffb0 01efede8     ....T...........
80002d30:	ffffffa7 00000019 fffffff7 01efede8     ................
80002d40:	ffffffb6 00000054 ffffffdc 01dfdbd1     ....T...........
80002d50:	ffffffa0 00000053 ffffffdc 01efede8     ....S...........
80002d60:	ffffffa7 00000019 fffffff7 01efede8     ................
80002d70:	ffffffb8 0000001a fffffff8 01e8e5de     ................
80002d80:	ffffffb8 0000001a fffffff8 01d8d2c6     ................
80002d90:	ffffffa0 00000053 ffffffdc 01efede8     ....S...........
80002da0:	ffffffa8 00000003 ffffffd6 01efede8     ................
80002db0:	ffffffa7 00000019 fffffff7 01efede8     ................
80002dc0:	00000056 00000026 0000000f 01efede8     V...&...........
80002dd0:	00000044 0000003b 0000002f 01e5e1d9     D...;.../.......
80002de0:	00000055 0000003c 0000002f 01efede8     U...<.../.......
80002df0:	00000044 00000064 00000020 01efede8     D...d... .......
80002e00:	00000044 00000051 fffffffc 01e3dfd7     D...Q...........
80002e10:	00000044 00000051 00000026 01e5e1d9     D...Q...&.......
80002e20:	00000057 00000016 fffffff7 01efede8     W...............
80002e30:	00000047 00000001 ffffffd7 01efede8     G...............
80002e40:	00000046 00000015 fffffff7 01e8e5de     F...............
80002e50:	00000045 00000063 ffffffd5 01efede8     E...c...........
80002e60:	00000044 00000051 ffffffb1 01efede8     D...Q...........
80002e70:	00000044 00000051 ffffffdc 01e2ded5     D...Q...........
80002e80:	00000056 00000026 0000000f 01efede8     V...&...........
80002e90:	00000047 00000000 00000021 01e9e6df     G.......!.......
80002ea0:	00000045 00000026 0000000f 01ded9cf     E...&...........
80002eb0:	00000058 00000001 00000021 01efede8     X.......!.......
80002ec0:	00000046 00000000 0000004b 01e5e1d9     F.......K.......
80002ed0:	00000047 00000000 00000021 01e9e6df     G.......!.......
80002ee0:	00000055 0000003c 0000002f 01efede8     U...<.../.......
80002ef0:	00000046 00000000 0000004b 01e5e1d9     F.......K.......
80002f00:	00000057 00000001 0000004b 01efede8     W.......K.......
80002f10:	00000058 00000001 00000021 01efede8     X.......!.......
80002f20:	00000055 0000003c 0000002f 01efede8     U...<.../.......
80002f30:	00000057 00000001 0000004b 01efede8     W.......K.......
80002f40:	00000056 00000026 0000000f 01efede8     V...&...........
80002f50:	00000044 00000051 fffffffc 01e3dfd7     D...Q...........
80002f60:	00000055 00000051 fffffffc 01efede8     U...Q...........
80002f70:	00000055 00000051 00000026 01efede8     U...Q...&.......
80002f80:	00000044 0000003b 0000002f 01e5e1d9     D...;.../.......
80002f90:	00000055 0000003c 0000002f 01efede8     U...<.../.......
80002fa0:	00000056 00000026 0000000f 01efede8     V...&...........
80002fb0:	00000055 00000051 00000026 01efede8     U...Q...&.......
80002fc0:	00000055 0000003c 0000002f 01efede8     U...<.../.......
80002fd0:	00000055 00000052 ffffffb1 01efede8     U...R...........
80002fe0:	00000047 00000001 ffffffd7 01efede8     G...............
80002ff0:	00000044 00000051 ffffffb1 01efede8     D...Q...........
80003000:	00000057 00000017 fffffff7 01efede8     W...............
80003010:	00000046 00000015 fffffff7 01e8e5de     F...............
80003020:	00000057 00000016 fffffff7 01efede8     W...............
80003030:	00000057 00000017 fffffff7 01efede8     W...............
80003040:	00000044 00000051 ffffffdc 01e2ded5     D...Q...........
80003050:	00000046 00000016 fffffff7 01d8d2c6     F...............
80003060:	00000057 00000016 fffffff7 01efede8     W...............
80003070:	00000055 00000052 ffffffb1 01efede8     U...R...........
80003080:	00000055 00000052 ffffffdc 01efede8     U...R...........
80003090:	00000058 00000001 ffffffd7 01efede8     X...............
800030a0:	00000047 00000000 00000000 01e4e1d9     G...............
800030b0:	00000047 00000001 ffffffd7 01efede8     G...............
800030c0:	00000057 00000016 fffffff7 01efede8     W...............
800030d0:	00000047 00000000 00000000 01e4e1d9     G...............
800030e0:	00000058 00000001 00000000 01efede8     X...............
800030f0:	00000058 00000001 00000000 01efede8     X...............
80003100:	00000058 00000001 ffffffd7 01efede8     X...............
80003110:	00000057 00000016 fffffff7 01efede8     W...............
80003120:	ffffffb8 00000065 00000025 01efede8     ....e...%.......
80003130:	ffffffb6 00000054 00000005 01e4e0d8     ....T...........
80003140:	ffffffb6 00000054 0000002d 01e4e1d9     ....T...-.......
80003150:	ffffffb7 00000068 ffffffd4 01efede8     ....h...........
80003160:	ffffffb7 00000054 ffffffb0 01efede8     ....T...........
80003170:	ffffffb6 00000054 ffffffdb 01e8e5de     ....T...........
80003180:	00000044 00000063 fffffffc 01efede8     D...c...........
80003190:	00000044 00000051 fffffffc 01e3dfd7     D...Q...........
800031a0:	ffffffb6 00000054 00000005 01e4e0d8     ....T...........
800031b0:	00000044 00000064 00000020 01efede8     D...d... .......
800031c0:	ffffffb6 00000054 0000002d 01e4e1d9     ....T...-.......
800031d0:	00000044 00000051 00000026 01e5e1d9     D...Q...&.......
800031e0:	00000044 00000064 00000020 01efede8     D...d... .......
800031f0:	00000044 00000063 fffffffc 01efede8     D...c...........
80003200:	ffffffb8 00000065 00000025 01efede8     ....e...%.......
80003210:	00000041 00000065 ffffffa8 01efede8     A...e...........
80003220:	00000044 00000051 ffffffb1 01efede8     D...Q...........
80003230:	ffffffb7 00000054 ffffffb0 01efede8     ....T...........
80003240:	00000045 00000063 ffffffd5 01efede8     E...c...........
80003250:	00000044 00000051 ffffffdc 01e2ded5     D...Q...........
80003260:	00000044 00000051 ffffffb1 01efede8     D...Q...........
80003270:	00000045 00000063 ffffffd5 01efede8     E...c...........
80003280:	ffffffb6 00000054 ffffffdb 01e8e5de     ....T...........
80003290:	00000044 00000051 ffffffdc 01e2ded5     D...Q...........
800032a0:	00000041 00000065 ffffffa8 01efede8     A...e...........
800032b0:	ffffffb7 00000068 ffffffd4 01efede8     ....h...........
800032c0:	00000045 00000063 ffffffd5 01efede8     E...c...........
800032d0:	ffffffb8 00000065 00000025 01efede8     ....e...%.......
800032e0:	ffffffa5 00000053 0000002d 01efede8     ....S...-.......
800032f0:	ffffffb6 00000054 0000002d 01e4e1d9     ....T...-.......
80003300:	ffffffa5 00000063 00000023 01efede8     ....c...#.......
80003310:	ffffffa5 00000053 00000005 01efede8     ....S...........
80003320:	ffffffa5 00000053 0000002d 01efede8     ....S...-.......
80003330:	ffffffa3 00000063 fffffffb 01efede8     ....c...........
80003340:	ffffffb6 00000054 00000005 01e4e0d8     ....T...........
80003350:	ffffffa5 00000053 00000005 01efede8     ....S...........
80003360:	ffffffa3 00000063 fffffffb 01efede8     ....c...........
80003370:	ffffffa5 00000063 00000023 01efede8     ....c...#.......
80003380:	ffffffb8 00000065 00000025 01efede8     ....e...%.......
80003390:	ffffffb7 00000068 ffffffd4 01efede8     ....h...........
800033a0:	ffffffa0 00000053 ffffffdc 01efede8     ....S...........
800033b0:	ffffffb6 00000054 ffffffdc 01dfdbd1     ....T...........
800033c0:	ffffffa1 00000066 ffffffd7 01efede8     ....f...........
800033d0:	ffffffa0 00000054 ffffffb0 01efede8     ....T...........
800033e0:	ffffffa0 00000053 ffffffdc 01efede8     ....S...........
800033f0:	ffffffb6 00000068 ffffffa5 01efede8     ....h...........
80003400:	ffffffb7 00000054 ffffffb0 01efede8     ....T...........
80003410:	ffffffa0 00000054 ffffffb0 01efede8     ....T...........
80003420:	ffffffa1 00000066 ffffffd7 01efede8     ....f...........
80003430:	ffffffb6 00000068 ffffffa5 01efede8     ....h...........
80003440:	ffffffa0 00000069 ffffff9f 01efede8     ....i...........
80003450:	00000052 00000065 ffffffa8 01efede8     R...e...........
80003460:	00000055 00000052 ffffffb1 01efede8     U...R...........
80003470:	00000044 00000051 ffffffb1 01efede8     D...Q...........
80003480:	00000054 00000064 ffffffd5 01efede8     T...d...........
80003490:	00000055 00000052 ffffffdc 01efede8     U...R...........
800034a0:	00000055 00000052 ffffffb1 01efede8     U...R...........
800034b0:	00000054 00000064 ffffffd5 01efede8     T...d...........
800034c0:	00000044 00000051 ffffffdc 01e2ded5     D...Q...........
800034d0:	00000055 00000052 ffffffdc 01efede8     U...R...........
800034e0:	00000052 00000065 ffffffa8 01efede8     R...e...........
800034f0:	00000045 00000063 ffffffd5 01efede8     E...c...........
80003500:	00000054 00000064 ffffffd5 01efede8     T...d...........
80003510:	00000044 00000063 fffffffc 01efede8     D...c...........
80003520:	00000055 00000051 fffffffc 01efede8     U...Q...........
80003530:	00000044 00000051 fffffffc 01e3dfd7     D...Q...........
80003540:	00000052 00000062 00000022 01efede8     R...b...".......
80003550:	00000055 00000051 fffffffc 01efede8     U...Q...........
80003560:	00000054 00000063 fffffffc 01efede8     T...c...........
80003570:	00000052 00000062 00000022 01efede8     R...b...".......
80003580:	00000044 00000051 00000026 01e5e1d9     D...Q...&.......
80003590:	00000055 00000051 00000026 01efede8     U...Q...&.......
800035a0:	00000054 00000063 fffffffc 01efede8     T...c...........
800035b0:	00000044 00000063 fffffffc 01efede8     D...c...........
800035c0:	00000044 00000064 00000020 01efede8     D...d... .......
800035d0:	ffffffb6 00000054 00000005 01e4e0d8     ....T...........
800035e0:	ffffffb2 00000060 fffffffa 01efede8     ....`...........
800035f0:	ffffffb8 00000065 00000025 01efede8     ....e...%.......
80003600:	ffffffb8 00000065 00000025 01efede8     ....e...%.......
80003610:	ffffffb2 00000060 fffffffa 01efede8     ....`...........
80003620:	ffffffb6 00000054 00000005 01e4e0d8     ....T...........
80003630:	ffffffb6 00000054 00000005 01e4e0d8     ....T...........
80003640:	ffffffb2 00000060 fffffffa 01efede8     ....`...........
80003650:	00000044 00000063 fffffffc 01efede8     D...c...........
80003660:	00000044 00000063 fffffffc 01efede8     D...c...........
80003670:	ffffffb2 00000060 fffffffa 01efede8     ....`...........
80003680:	ffffffb8 00000065 00000025 01efede8     ....e...%.......
80003690:	ffffffa3 00000063 fffffffb 01efede8     ....c...........
800036a0:	ffffffb2 00000060 fffffffa 01efede8     ....`...........
800036b0:	ffffffb6 00000054 00000005 01e4e0d8     ....T...........
800036c0:	ffffffb8 00000065 00000025 01efede8     ....e...%.......
800036d0:	ffffffb2 00000060 fffffffa 01efede8     ....`...........
800036e0:	ffffffa3 00000063 fffffffb 01efede8     ....c...........
800036f0:	ffffffa5 00000063 00000023 01efede8     ....c...#.......
80003700:	ffffffa3 00000063 fffffffb 01efede8     ....c...........
80003710:	ffffffa5 00000053 00000005 01efede8     ....S...........
80003720:	ffffffb8 00000065 00000025 01efede8     ....e...%.......
80003730:	ffffffa5 00000063 00000023 01efede8     ....c...#.......
80003740:	ffffffa5 00000053 0000002d 01efede8     ....S...-.......
80003750:	00000044 00000064 00000020 01efede8     D...d... .......
80003760:	ffffffb8 00000065 00000025 01efede8     ....e...%.......
80003770:	ffffffb6 00000054 0000002d 01e4e1d9     ....T...-.......
80003780:	00000052 00000062 00000022 01efede8     R...b...".......
80003790:	00000044 00000064 00000020 01efede8     D...d... .......
800037a0:	00000044 00000051 00000026 01e5e1d9     D...Q...&.......
800037b0:	00000044 00000064 00000020 01efede8     D...d... .......
800037c0:	00000052 00000062 00000022 01efede8     R...b...".......
800037d0:	00000054 00000063 fffffffc 01efede8     T...c...........
800037e0:	ffffffb7 00000054 ffffffb0 01efede8     ....T...........
800037f0:	ffffffb6 00000068 ffffffa5 01efede8     ....h...........
80003800:	00000041 00000065 ffffffa8 01efede8     A...e...........
80003810:	00000045 00000063 ffffffd5 01efede8     E...c...........
80003820:	00000041 00000065 ffffffa8 01efede8     A...e...........
80003830:	00000044 00000051 ffffffb1 01efede8     D...Q...........
80003840:	00000044 00000051 ffffffb1 01efede8     D...Q...........
80003850:	00000041 00000065 ffffffa8 01efede8     A...e...........
80003860:	00000045 00000063 ffffffd5 01efede8     E...c...........
80003870:	00000044 00000051 ffffffb1 01efede8     D...Q...........
80003880:	00000041 00000065 ffffffa8 01efede8     A...e...........
80003890:	00000052 00000065 ffffffa8 01efede8     R...e...........
800038a0:	00000055 00000052 ffffffb1 01efede8     U...R...........
800038b0:	00000052 00000065 ffffffa8 01efede8     R...e...........
800038c0:	00000054 00000064 ffffffd5 01efede8     T...d...........
800038d0:	ffffffb7 00000068 ffffffd4 01efede8     ....h...........
800038e0:	ffffffa1 00000066 ffffffd7 01efede8     ....f...........
800038f0:	ffffffa0 00000053 ffffffdc 01efede8     ....S...........
80003900:	ffffffa0 00000054 ffffffb0 01efede8     ....T...........
80003910:	ffffffa0 00000069 ffffff9f 01efede8     ....i...........
80003920:	ffffffb6 00000068 ffffffa5 01efede8     ....h...........
80003930:	00000045 00000063 ffffffd5 01efede8     E...c...........
80003940:	ffffffb7 00000068 ffffffd4 01efede8     ....h...........
80003950:	ffffffb6 00000054 ffffffdb 01e8e5de     ....T...........
80003960:	00000054 00000064 ffffffd5 01efede8     T...d...........
80003970:	00000045 00000063 ffffffd5 01efede8     E...c...........
80003980:	00000044 00000051 ffffffdc 01e2ded5     D...Q...........
80003990:	ffffffb9 00000003 00000075 01efede8     ........u.......
800039a0:	00000046 00000000 000000a0 01efede8     F...............
800039b0:	ffffffb8 00000003 000000a2 01efede8     ................
800039c0:	00000045 00000014 00000096 01efede8     E...............
800039d0:	00000043 00000050 0000007b 01efede8     C...P...{.......
800039e0:	00000046 00000000 000000a0 01efede8     F...............
800039f0:	ffffffb6 00000053 0000007c 01efede8     ....S...|.......
80003a00:	ffffffb8 00000019 00000097 01efede8     ................
80003a10:	ffffffb8 00000003 000000a2 01efede8     ................
80003a20:	00000043 00000050 0000007b 01efede8     C...P...{.......
80003a30:	ffffffb6 00000053 0000007c 01efede8     ....S...|.......
80003a40:	00000046 00000000 000000a0 01efede8     F...............
80003a50:	ffffffb9 00000003 00000075 01efede8     ........u.......
80003a60:	00000043 00000050 00000050 01efede8     C...P...P.......
80003a70:	00000046 00000000 00000076 01efede8     F.......v.......
80003a80:	ffffffa8 00000002 00000075 01efede8     ........u.......
80003a90:	ffffffb6 00000053 00000050 01efede8     ....S...P.......
80003aa0:	ffffffb9 00000003 00000075 01efede8     ........u.......
80003ab0:	ffffffa8 00000002 00000075 01efede8     ........u.......
80003ac0:	ffffffb8 00000003 000000a2 01efede8     ................
80003ad0:	ffffffa7 00000002 000000a2 01efede8     ................
80003ae0:	ffffffb8 00000019 00000098 01efede8     ................
80003af0:	ffffffb8 00000019 00000097 01efede8     ................
80003b00:	ffffffb6 00000053 0000007c 01efede8     ....S...|.......
80003b10:	ffffffa8 00000002 00000075 01efede8     ........u.......
80003b20:	ffffffb8 00000019 00000097 01efede8     ................
80003b30:	ffffffb9 00000003 00000075 01efede8     ........u.......
80003b40:	ffffffa7 00000018 00000097 01efede8     ................
80003b50:	ffffffb8 00000003 000000a2 01efede8     ................
80003b60:	ffffffb8 00000019 00000097 01efede8     ................
80003b70:	ffffffa7 00000018 00000097 01efede8     ................
80003b80:	ffffffa8 00000002 00000075 01efede8     ........u.......
80003b90:	ffffffa7 00000002 000000a2 01efede8     ................
80003ba0:	ffffffb6 00000053 0000007c 01efede8     ....S...|.......
80003bb0:	ffffffb6 00000053 0000007b 01efede8     ....S...{.......
80003bc0:	ffffffb6 00000053 00000050 01efede8     ....S...P.......
80003bd0:	ffffffa7 00000018 00000097 01efede8     ................
80003be0:	ffffffb6 00000053 0000007c 01efede8     ....S...|.......
80003bf0:	ffffff9f 00000052 0000007c 01efede8     ....R...|.......
80003c00:	ffffffa7 00000018 00000097 01efede8     ................
80003c10:	ffffffb8 00000019 00000097 01efede8     ................
80003c20:	ffffffb8 00000019 00000098 01efede8     ................
80003c30:	ffffff9f 00000052 0000007c 01efede8     ....R...|.......
80003c40:	ffffffa8 00000002 00000075 01efede8     ........u.......
80003c50:	ffffffa7 00000018 00000097 01efede8     ................
80003c60:	00000045 00000014 00000096 01efede8     E...............
80003c70:	00000045 00000015 00000097 01efede8     E...............
80003c80:	00000043 00000050 0000007b 01efede8     C...P...{.......
80003c90:	00000045 00000014 00000096 01efede8     E...............
80003ca0:	00000043 00000050 0000007b 01efede8     C...P...{.......
80003cb0:	00000045 00000015 00000097 01efede8     E...............
80003cc0:	00000055 00000051 0000007b 01efede8     U...Q...{.......
80003cd0:	00000043 00000050 00000050 01efede8     C...P...P.......
80003ce0:	00000043 00000050 0000007b 01efede8     C...P...{.......
80003cf0:	00000058 00000000 00000076 01efede8     X.......v.......
80003d00:	00000045 00000014 00000096 01efede8     E...............
80003d10:	00000057 00000015 00000096 01efede8     W...............
80003d20:	00000043 00000050 0000007b 01efede8     C...P...{.......
80003d30:	ffffffb6 00000053 0000007b 01efede8     ....S...{.......
80003d40:	ffffffb6 00000053 0000007c 01efede8     ....S...|.......
80003d50:	ffffffb6 00000064 0000006f 01efede8     ....d...o.......
80003d60:	ffffffb6 00000053 00000050 01efede8     ....S...P.......
80003d70:	ffffffb6 00000053 0000007b 01efede8     ....S...{.......
80003d80:	ffffffb4 00000064 00000048 01efede8     ....d...H.......
80003d90:	00000043 00000050 00000050 01efede8     C...P...P.......
80003da0:	ffffffb6 00000053 00000050 01efede8     ....S...P.......
80003db0:	00000043 00000062 00000076 01efede8     C...b...v.......
80003dc0:	ffffffb6 00000053 0000007b 01efede8     ....S...{.......
80003dd0:	00000043 00000050 0000007b 01efede8     C...P...{.......
80003de0:	00000044 00000061 0000004b 01efede8     D...a...K.......
80003df0:	ffffffb6 00000064 0000006f 01efede8     ....d...o.......
80003e00:	00000043 00000062 00000076 01efede8     C...b...v.......
80003e10:	ffffffb6 00000064 0000006f 01efede8     ....d...o.......
80003e20:	ffffffb6 00000053 0000007c 01efede8     ....S...|.......
80003e30:	ffffffb6 00000053 00000050 01efede8     ....S...P.......
80003e40:	ffffffb6 00000064 0000006f 01efede8     ....d...o.......
80003e50:	ffffff9f 00000052 0000007c 01efede8     ....R...|.......
80003e60:	ffffffb6 00000053 0000007c 01efede8     ....S...|.......
80003e70:	ffffffa2 00000063 0000006f 01efede8     ....c...o.......
80003e80:	ffffffa0 00000053 00000050 01efede8     ....S...P.......
80003e90:	ffffff9f 00000052 0000007c 01efede8     ....R...|.......
80003ea0:	ffffffa4 00000065 00000046 01efede8     ....e...F.......
80003eb0:	ffffffb6 00000053 00000050 01efede8     ....S...P.......
80003ec0:	ffffffa0 00000053 00000050 01efede8     ....S...P.......
80003ed0:	ffffffa4 00000065 00000046 01efede8     ....e...F.......
80003ee0:	ffffffb6 00000064 0000006f 01efede8     ....d...o.......
80003ef0:	ffffffb4 00000064 00000048 01efede8     ....d...H.......
80003f00:	00000055 00000051 00000050 01efede8     U...Q...P.......
80003f10:	00000054 00000061 00000076 01efede8     T...a...v.......
80003f20:	00000043 00000050 00000050 01efede8     C...P...P.......
80003f30:	00000055 00000051 00000050 01efede8     U...Q...P.......
80003f40:	00000046 00000000 00000076 01efede8     F.......v.......
80003f50:	00000043 00000050 00000050 01efede8     C...P...P.......
80003f60:	00000043 00000062 00000076 01efede8     C...b...v.......
80003f70:	00000043 00000050 0000007b 01efede8     C...P...{.......
80003f80:	00000043 00000050 00000050 01efede8     C...P...P.......
80003f90:	ffffffb6 00000053 0000007c 01efede8     ....S...|.......
80003fa0:	ffffffb8 00000003 000000a2 01efede8     ................
80003fb0:	00000046 00000000 000000a0 01efede8     F...............
80003fc0:	00000055 00000051 00000050 01efede8     U...Q...P.......
80003fd0:	00000045 00000014 00000096 01efede8     E...............
80003fe0:	00000057 00000015 00000096 01efede8     W...............
80003ff0:	00000057 00000015 00000096 01efede8     W...............
80004000:	00000058 00000000 00000076 01efede8     X.......v.......
80004010:	00000055 00000051 00000050 01efede8     U...Q...P.......
80004020:	00000058 00000000 000000a0 01efede8     X...............
80004030:	00000046 00000000 00000076 01efede8     F.......v.......
80004040:	00000058 00000000 00000076 01efede8     X.......v.......
80004050:	00000058 00000000 000000a0 01efede8     X...............
80004060:	00000045 00000014 00000096 01efede8     E...............
80004070:	00000046 00000000 000000a0 01efede8     F...............
80004080:	00000058 00000000 000000a0 01efede8     X...............
80004090:	00000058 00000000 00000076 01efede8     X.......v.......
800040a0:	00000057 00000015 00000096 01efede8     W...............
800040b0:	00000055 00000051 0000007b 01efede8     U...Q...{.......
800040c0:	00000045 00000014 00000096 01efede8     E...............
800040d0:	00000057 00000015 00000096 01efede8     W...............
800040e0:	00000057 00000015 00000096 01efede8     W...............
800040f0:	00000055 00000051 00000050 01efede8     U...Q...P.......
80004100:	00000055 00000051 0000007b 01efede8     U...Q...{.......
80004110:	00000054 00000061 00000076 01efede8     T...a...v.......
80004120:	00000044 00000061 0000004b 01efede8     D...a...K.......
80004130:	00000043 00000062 00000076 01efede8     C...b...v.......
80004140:	00000055 00000051 00000050 01efede8     U...Q...P.......
80004150:	00000043 00000050 00000050 01efede8     C...P...P.......
80004160:	00000044 00000061 0000004b 01efede8     D...a...K.......
80004170:	00000055 00000060 0000004b 01efede8     U...`...K.......
80004180:	00000054 00000061 00000076 01efede8     T...a...v.......
80004190:	00000055 00000051 00000050 01efede8     U...Q...P.......
800041a0:	00000055 00000051 0000007b 01efede8     U...Q...{.......
800041b0:	00000054 00000061 00000076 01efede8     T...a...v.......
800041c0:	00000043 00000050 0000007b 01efede8     C...P...{.......
800041d0:	00000055 00000051 00000050 01efede8     U...Q...P.......
800041e0:	00000043 00000050 00000050 01efede8     C...P...P.......
800041f0:	00000044 00000061 0000004b 01efede8     D...a...K.......
80004200:	00000044 00000061 0000004b 01efede8     D...a...K.......
80004210:	00000055 00000060 0000004b 01efede8     U...`...K.......
80004220:	00000055 00000051 00000050 01efede8     U...Q...P.......
80004230:	00000044 00000061 0000004b 01efede8     D...a...K.......
80004240:	00000055 00000060 0000004b 01efede8     U...`...K.......
80004250:	00000055 00000051 00000050 01efede8     U...Q...P.......
80004260:	ffffffb4 00000064 00000048 01efede8     ....d...H.......
80004270:	00000044 00000061 0000004b 01efede8     D...a...K.......
80004280:	00000043 00000050 00000050 01efede8     C...P...P.......
80004290:	ffffffb6 00000064 0000006f 01efede8     ....d...o.......
800042a0:	ffffffb4 00000064 00000048 01efede8     ....d...H.......
800042b0:	ffffffb6 00000053 00000050 01efede8     ....S...P.......
800042c0:	ffffffb6 00000053 00000050 01efede8     ....S...P.......
800042d0:	ffffffb4 00000064 00000048 01efede8     ....d...H.......
800042e0:	ffffffb6 00000064 0000006f 01efede8     ....d...o.......
800042f0:	ffffffa4 00000065 00000046 01efede8     ....e...F.......
80004300:	ffffffb4 00000064 00000048 01efede8     ....d...H.......
80004310:	ffffffb6 00000053 00000050 01efede8     ....S...P.......
80004320:	ffffffa2 00000063 0000006f 01efede8     ....c...o.......
80004330:	ffffffa4 00000065 00000046 01efede8     ....e...F.......
80004340:	ffffffa0 00000053 00000050 01efede8     ....S...P.......
80004350:	ffffffb6 00000064 0000006f 01efede8     ....d...o.......
80004360:	ffffffa2 00000063 0000006f 01efede8     ....c...o.......
80004370:	ffffff9f 00000052 0000007c 01efede8     ....R...|.......
80004380:	ffffffa4 00000065 00000046 01efede8     ....e...F.......
80004390:	ffffffa2 00000063 0000006f 01efede8     ....c...o.......
800043a0:	ffffffb6 00000064 0000006f 01efede8     ....d...o.......
800043b0:	00000043 00000062 00000076 01efede8     C...b...v.......
800043c0:	ffffffb6 00000064 0000006f 01efede8     ....d...o.......
800043d0:	ffffffb6 00000053 0000007b 01efede8     ....S...{.......
800043e0:	00000054 00000061 00000076 01efede8     T...a...v.......
800043f0:	00000043 00000062 00000076 01efede8     C...b...v.......
80004400:	00000043 00000050 00000050 01efede8     C...P...P.......
80004410:	00000054 00000061 00000076 01efede8     T...a...v.......
80004420:	00000043 00000062 00000076 01efede8     C...b...v.......
80004430:	00000043 00000050 0000007b 01efede8     C...P...{.......
80004440:	ffffffba fffffffc ffffff11 01efede8     ................
80004450:	00000047 fffffff9 ffffff11 01efede8     G...............
80004460:	00000048 ffffffce ffffff23 01efede8     H.......#.......
80004470:	00000044 00000033 ffffffc5 01efede8     D...3...........
80004480:	ffffffb6 00000036 ffffffc5 01efede8     ....6...........
80004490:	ffffffb8 ffffffcf ffffffef 01bdd0f0     ................
800044a0:	00000045 ffffffba ffffffe8 01c3d4ef     E...............
800044b0:	ffffffb8 ffffffcf ffffffef 01bdd0f0     ................
800044c0:	ffffffb6 ffffffd0 ffffff38 0197baf6     ........8.......
800044d0:	00000044 00000033 ffffffc5 01efede8     D...3...........
800044e0:	0000004b 00000036 ffffff23 01efede8     K...6...#.......
800044f0:	ffffffbd 0000003a ffffff23 01efede8     ....:...#.......
80004500:	ffffffbd 0000003a ffffff23 01efede8     ....:...#.......
80004510:	0000004b 00000036 ffffff23 01efede8     K...6...#.......
80004520:	00000047 fffffff9 ffffff11 01efede8     G...............
80004530:	00000046 00000000 000000f2 01efede8     F...............
80004540:	ffffffb8 00000002 000000f1 01efede8     ................
80004550:	ffffffc4 ffffffbb 000000cb 01efede8     ................
80004560:	ffffffc4 ffffffbb 000000cb 01efede8     ................
80004570:	ffffffb8 ffffffcf ffffffef 01bdd0f0     ................
80004580:	00000045 ffffffba ffffffe8 01c3d4ef     E...............
80004590:	00000046 00000000 00000076 01eae8e1     F.......v.......
800045a0:	ffffffb9 00000003 00000075 01e6e3db     ........u.......
800045b0:	ffffffb9 00000003 00000058 01e3dfd7     ........X.......
800045c0:	ffffffb9 00000003 0000002e 01e7e4dc     ................
800045d0:	ffffffb9 00000004 00000001 01e5e1d9     ................
800045e0:	ffffffb9 00000004 ffffffd6 01efede8     ................
800045f0:	00000046 00000000 00000076 01eae8e1     F.......v.......
80004600:	ffffffb9 00000003 00000058 01e3dfd7     ........X.......
80004610:	ffffffb9 00000003 0000002e 01e7e4dc     ................
80004620:	00000047 00000000 00000021 01e9e6df     G.......!.......
80004630:	00000046 00000000 0000004b 01e5e1d9     F.......K.......
80004640:	00000046 00000000 00000076 01eae8e1     F.......v.......
80004650:	ffffffb9 00000004 ffffffd6 01efede8     ................
80004660:	00000047 00000001 ffffffd7 01efede8     G...............
80004670:	00000047 00000000 00000000 01e4e1d9     G...............
80004680:	00000047 00000000 00000000 01e4e1d9     G...............
80004690:	00000047 00000000 00000021 01e9e6df     G.......!.......
800046a0:	00000046 00000000 00000076 01eae8e1     F.......v.......
800046b0:	00000046 00000000 00000076 01eae8e1     F.......v.......
800046c0:	ffffffb9 00000003 0000002e 01e7e4dc     ................
800046d0:	ffffffb9 00000004 ffffffd6 01efede8     ................
800046e0:	00000043 00000050 00000050 01d6d0c4     C...P...P.......
800046f0:	ffffffb6 00000053 00000050 01d3cdc0     ....S...P.......
80004700:	ffffffb9 00000003 00000075 01e6e3db     ........u.......
80004710:	ffffffb9 00000004 ffffffd6 01efede8     ................
80004720:	ffffffb7 00000054 ffffffb0 01efede8     ....T...........
80004730:	00000044 00000051 ffffffb1 01efede8     D...Q...........
80004740:	ffffffa8 00000003 ffffffd6 01efede8     ................
80004750:	ffffffa0 00000054 ffffffb0 01efede8     ....T...........
80004760:	ffffffb7 00000054 ffffffb0 01efede8     ....T...........
80004770:	ffffffa8 00000002 00000058 01efede8     ........X.......
80004780:	ffffffa8 00000003 0000002e 01efede8     ................
80004790:	ffffffb9 00000003 0000002e 01e7e4dc     ................
800047a0:	ffffffa8 00000003 ffffffd6 01efede8     ................
800047b0:	ffffffb9 00000004 ffffffd6 01efede8     ................
800047c0:	ffffffb9 00000004 00000001 01e5e1d9     ................
800047d0:	ffffffa6 0000002f 00000018 01efede8     ..../...........
800047e0:	ffffffb7 0000002f 00000018 01dbd6cb     ..../...........
800047f0:	ffffffb9 00000003 0000002e 01e7e4dc     ................
80004800:	ffffffa6 0000002f 00000019 01efede8     ..../...........
80004810:	ffffffb7 00000030 00000019 01eae7e0     ....0...........
80004820:	ffffffb7 0000002f 00000018 01dbd6cb     ..../...........
80004830:	ffffffa6 0000002f 00000019 01efede8     ..../...........
80004840:	ffffffa6 00000043 00000037 01efede8     ....C...7.......
80004850:	ffffffb7 00000043 00000037 01e6e3db     ....C...7.......
80004860:	ffffffa8 00000002 00000058 01efede8     ........X.......
80004870:	ffffffb9 00000003 00000058 01e3dfd7     ........X.......
80004880:	ffffffb7 00000043 00000037 01e6e3db     ....C...7.......
80004890:	ffffffa8 00000002 00000058 01efede8     ........X.......
800048a0:	ffffffa6 00000043 00000037 01efede8     ....C...7.......
800048b0:	ffffffa6 0000002f 00000019 01efede8     ..../...........
800048c0:	ffffffa6 0000002f 00000019 01efede8     ..../...........
800048d0:	ffffffa6 0000002f 00000018 01efede8     ..../...........
800048e0:	ffffffa8 00000003 0000002e 01efede8     ................
800048f0:	ffffffa6 00000043 00000037 01efede8     ....C...7.......
80004900:	ffffffb7 00000043 00000037 01e6e3db     ....C...7.......
80004910:	ffffffb6 00000054 0000002d 01e4e1d9     ....T...-.......
80004920:	ffffffa6 00000043 00000037 01efede8     ....C...7.......
80004930:	ffffffa6 0000002f 00000018 01efede8     ..../...........
80004940:	ffffffb7 00000030 00000019 01eae7e0     ....0...........
80004950:	ffffffa5 00000053 00000005 01efede8     ....S...........
80004960:	ffffffb6 00000054 00000005 01e4e0d8     ....T...........
80004970:	ffffffb7 00000030 00000019 01eae7e0     ....0...........
80004980:	ffffffa6 0000002f 00000018 01efede8     ..../...........
80004990:	ffffffa6 00000043 00000037 01efede8     ....C...7.......
800049a0:	ffffffa5 00000053 0000002d 01efede8     ....S...-.......
800049b0:	ffffffa8 00000003 ffffffd6 01efede8     ................
800049c0:	ffffffa7 00000019 fffffff7 01efede8     ................
800049d0:	ffffffb8 0000001a fffffff8 01e8e5de     ................
800049e0:	ffffffa7 00000019 fffffff7 01efede8     ................
800049f0:	ffffffa8 00000003 00000001 01efede8     ................
80004a00:	ffffffb9 00000004 00000001 01e5e1d9     ................
80004a10:	ffffffa7 00000019 fffffff7 01efede8     ................
80004a20:	ffffffb8 0000001a fffffff8 01d8d2c6     ................
80004a30:	ffffffb6 00000054 ffffffdc 01dfdbd1     ....T...........
80004a40:	ffffffa0 00000053 ffffffdc 01efede8     ....S...........
80004a50:	ffffffa0 00000054 ffffffb0 01efede8     ....T...........
80004a60:	ffffffa8 00000003 ffffffd6 01efede8     ................
80004a70:	00000056 00000026 0000000f 01efede8     V...&...........
80004a80:	00000045 00000026 0000000f 01ded9cf     E...&...........
80004a90:	00000044 0000003b 0000002f 01e5e1d9     D...;.../.......
80004aa0:	00000044 00000064 00000020 01efede8     D...d... .......
80004ab0:	00000044 00000063 fffffffc 01efede8     D...c...........
80004ac0:	00000044 00000051 fffffffc 01e3dfd7     D...Q...........
80004ad0:	00000057 00000016 fffffff7 01efede8     W...............
80004ae0:	00000058 00000001 ffffffd7 01efede8     X...............
80004af0:	00000047 00000001 ffffffd7 01efede8     G...............
80004b00:	00000056 00000026 0000000f 01efede8     V...&...........
80004b10:	00000058 00000001 00000021 01efede8     X.......!.......
80004b20:	00000047 00000000 00000021 01e9e6df     G.......!.......
80004b30:	00000058 00000001 00000021 01efede8     X.......!.......
80004b40:	00000057 00000001 0000004b 01efede8     W.......K.......
80004b50:	00000046 00000000 0000004b 01e5e1d9     F.......K.......
80004b60:	00000055 0000003c 0000002f 01efede8     U...<.../.......
80004b70:	00000044 0000003b 0000002f 01e5e1d9     D...;.../.......
80004b80:	00000046 00000000 0000004b 01e5e1d9     F.......K.......
80004b90:	00000058 00000001 00000021 01efede8     X.......!.......
80004ba0:	00000056 00000026 0000000f 01efede8     V...&...........
80004bb0:	00000055 0000003c 0000002f 01efede8     U...<.../.......
80004bc0:	00000056 00000026 0000000f 01efede8     V...&...........
80004bd0:	00000045 00000026 0000000f 01ded9cf     E...&...........
80004be0:	00000044 00000051 fffffffc 01e3dfd7     D...Q...........
80004bf0:	00000055 00000051 00000026 01efede8     U...Q...&.......
80004c00:	00000044 00000051 00000026 01e5e1d9     D...Q...&.......
80004c10:	00000044 0000003b 0000002f 01e5e1d9     D...;.../.......
80004c20:	00000056 00000026 0000000f 01efede8     V...&...........
80004c30:	00000055 00000051 fffffffc 01efede8     U...Q...........
80004c40:	00000055 00000051 00000026 01efede8     U...Q...&.......
80004c50:	00000055 00000052 ffffffb1 01efede8     U...R...........
80004c60:	00000058 00000001 ffffffd7 01efede8     X...............
80004c70:	00000047 00000001 ffffffd7 01efede8     G...............
80004c80:	00000057 00000017 fffffff7 01efede8     W...............
80004c90:	00000046 00000016 fffffff7 01d8d2c6     F...............
80004ca0:	00000046 00000015 fffffff7 01e8e5de     F...............
80004cb0:	00000057 00000017 fffffff7 01efede8     W...............
80004cc0:	00000055 00000052 ffffffdc 01efede8     U...R...........
80004cd0:	00000044 00000051 ffffffdc 01e2ded5     D...Q...........
80004ce0:	00000055 00000052 ffffffdc 01efede8     U...R...........
80004cf0:	00000057 00000017 fffffff7 01efede8     W...............
80004d00:	00000057 00000016 fffffff7 01efede8     W...............
80004d10:	00000057 00000016 fffffff7 01efede8     W...............
80004d20:	00000058 00000001 ffffffd7 01efede8     X...............
80004d30:	00000055 00000052 ffffffb1 01efede8     U...R...........
80004d40:	00000058 00000001 ffffffd7 01efede8     X...............
80004d50:	00000058 00000001 00000000 01efede8     X...............
80004d60:	00000047 00000000 00000000 01e4e1d9     G...............
80004d70:	00000057 00000016 fffffff7 01efede8     W...............
80004d80:	00000046 00000015 fffffff7 01e8e5de     F...............
80004d90:	00000047 00000000 00000000 01e4e1d9     G...............
80004da0:	ffffffb7 00000068 ffffffd4 01efede8     ....h...........
80004db0:	ffffffb6 00000068 ffffffa5 01efede8     ....h...........
80004dc0:	ffffffb7 00000054 ffffffb0 01efede8     ....T...........
80004dd0:	00000041 00000065 ffffffa8 01efede8     A...e...........
80004de0:	ffffffb6 00000068 ffffffa5 01efede8     ....h...........
80004df0:	ffffffb7 00000068 ffffffd4 01efede8     ....h...........
80004e00:	ffffffb7 00000068 ffffffd4 01efede8     ....h...........
80004e10:	ffffffb6 00000054 ffffffdc 01dfdbd1     ....T...........
80004e20:	ffffffb7 00000054 ffffffb0 01efede8     ....T...........
80004e30:	ffffffa1 00000066 ffffffd7 01efede8     ....f...........
80004e40:	ffffffa0 00000069 ffffff9f 01efede8     ....i...........
80004e50:	ffffffa0 00000054 ffffffb0 01efede8     ....T...........
80004e60:	ffffffa1 00000066 ffffffd7 01efede8     ....f...........
80004e70:	ffffffb7 00000068 ffffffd4 01efede8     ....h...........
80004e80:	ffffffb6 00000068 ffffffa5 01efede8     ....h...........
80004e90:	00000052 00000065 ffffffa8 01efede8     R...e...........
80004ea0:	00000041 00000065 ffffffa8 01efede8     A...e...........
80004eb0:	00000045 00000063 ffffffd5 01efede8     E...c...........
80004ec0:	00000044 00000063 fffffffc 01efede8     D...c...........
80004ed0:	00000054 00000063 fffffffc 01efede8     T...c...........
80004ee0:	00000055 00000051 fffffffc 01efede8     U...Q...........
80004ef0:	00000052 00000062 00000022 01efede8     R...b...".......
80004f00:	00000055 00000051 00000026 01efede8     U...Q...&.......
80004f10:	00000055 00000051 fffffffc 01efede8     U...Q...........
80004f20:	ffffffb9 00000003 00000075 01efede8     ........u.......
80004f30:	00000046 00000000 00000076 01efede8     F.......v.......
80004f40:	00000046 00000000 000000a0 01efede8     F...............
80004f50:	ffffffb9 00000003 00000075 01efede8     ........u.......
80004f60:	ffffffb6 00000053 00000050 01efede8     ....S...P.......
80004f70:	00000043 00000050 00000050 01efede8     C...P...P.......
80004f80:	ffffffa8 00000002 00000075 01efede8     ........u.......
80004f90:	ffffffa0 00000053 00000050 01efede8     ....S...P.......
80004fa0:	ffffffb6 00000053 00000050 01efede8     ....S...P.......
80004fb0:	ffffffa8 00000002 00000075 01efede8     ........u.......
80004fc0:	ffffffb9 00000003 00000075 01efede8     ........u.......
80004fd0:	ffffffb8 00000003 000000a2 01efede8     ................
80004fe0:	ffffffa8 00000002 00000075 01efede8     ........u.......
80004ff0:	ffffffa7 00000018 00000097 01efede8     ................
80005000:	ffffffb8 00000019 00000097 01efede8     ................
80005010:	ffffffa7 00000018 00000097 01efede8     ................
80005020:	ffffffa7 00000002 000000a2 01efede8     ................
80005030:	ffffffb8 00000003 000000a2 01efede8     ................
80005040:	ffffffa7 00000018 00000097 01efede8     ................
80005050:	ffffffb8 00000019 00000098 01efede8     ................
80005060:	ffffffb6 00000053 0000007c 01efede8     ....S...|.......
80005070:	ffffff9f 00000052 0000007c 01efede8     ....R...|.......
80005080:	ffffffa0 00000053 00000050 01efede8     ....S...P.......
80005090:	ffffffa8 00000002 00000075 01efede8     ........u.......
800050a0:	00000043 00000062 00000076 01efede8     C...b...v.......
800050b0:	00000044 00000061 0000004b 01efede8     D...a...K.......
800050c0:	00000043 00000050 00000050 01efede8     C...P...P.......
800050d0:	00000055 00000051 0000007b 01efede8     U...Q...{.......
800050e0:	00000055 00000051 00000050 01efede8     U...Q...P.......
800050f0:	00000043 00000050 00000050 01efede8     C...P...P.......
80005100:	00000058 00000000 00000076 01efede8     X.......v.......
80005110:	00000046 00000000 00000076 01efede8     F.......v.......
80005120:	00000045 00000014 00000096 01efede8     E...............
80005130:	00000044 00000061 0000004b 01efede8     D...a...K.......
80005140:	ffffffb4 00000064 00000048 01efede8     ....d...H.......
80005150:	ffffffb6 00000064 0000006f 01efede8     ....d...o.......
80005160:	00000055 00000051 00000050 01efede8     U...Q...P.......
80005170:	00000058 00000000 00000076 01efede8     X.......v.......
80005180:	00000046 00000000 00000076 01efede8     F.......v.......
80005190:	00000055 00000051 00000050 01efede8     U...Q...P.......
800051a0:	00000043 00000050 00000050 01efede8     C...P...P.......
800051b0:	00000045 00000014 00000096 01efede8     E...............
800051c0:	00000058 00000000 000000a0 01efede8     X...............
800051d0:	00000046 00000000 000000a0 01efede8     F...............
800051e0:	00000046 00000000 00000076 01efede8     F.......v.......
800051f0:	00000058 00000000 000000a0 01efede8     X...............
80005200:	00000057 00000015 00000096 01efede8     W...............
80005210:	00000045 00000014 00000096 01efede8     E...............
80005220:	00000055 00000051 0000007b 01efede8     U...Q...{.......
80005230:	00000043 00000050 0000007b 01efede8     C...P...{.......
80005240:	00000045 00000014 00000096 01efede8     E...............
80005250:	00000054 00000061 00000076 01efede8     T...a...v.......
80005260:	00000055 00000060 0000004b 01efede8     U...`...K.......
80005270:	00000044 00000061 0000004b 01efede8     D...a...K.......
80005280:	00000054 00000061 00000076 01efede8     T...a...v.......
80005290:	00000055 00000051 0000007b 01efede8     U...Q...{.......
800052a0:	00000055 00000051 00000050 01efede8     U...Q...P.......
800052b0:	ffffffb6 00000054 0000002d 01e4e1d9     ....T...-.......
800052c0:	00000043 00000050 00000050 01d6d0c4     C...P...P.......
800052d0:	00000044 00000051 00000026 01e5e1d9     D...Q...&.......
800052e0:	00000046 00000000 0000004b 01e5e1d9     F.......K.......
800052f0:	00000043 00000050 00000050 01d6d0c4     C...P...P.......
80005300:	00000046 00000000 00000076 01eae8e1     F.......v.......
80005310:	ffffffb6 00000053 00000050 01d3cdc0     ....S...P.......
80005320:	ffffffb9 00000003 00000058 01e3dfd7     ........X.......
80005330:	ffffffb9 00000003 00000075 01e6e3db     ........u.......
80005340:	00000044 0000003b 0000002f 01e5e1d9     D...;.../.......
80005350:	00000044 00000051 00000026 01e5e1d9     D...Q...&.......
80005360:	00000043 00000050 00000050 01d6d0c4     C...P...P.......
80005370:	ffffffb8 0000001a fffffff8 01d8d2c6     ................
80005380:	ffffffb9 00000004 00000001 01e5e1d9     ................
80005390:	ffffffb9 00000003 0000002e 01e7e4dc     ................
800053a0:	ffffffb7 0000002f 00000018 01dbd6cb     ..../...........
800053b0:	ffffffb6 00000054 00000005 01e4e0d8     ....T...........
800053c0:	ffffffb6 00000054 ffffffdc 01dfdbd1     ....T...........
800053d0:	ffffffb7 00000043 00000037 01e6e3db     ....C...7.......
800053e0:	ffffffb6 00000053 00000050 01d3cdc0     ....S...P.......
800053f0:	ffffffb6 00000054 0000002d 01e4e1d9     ....T...-.......
80005400:	00000047 00000000 00000000 01e4e1d9     G...............
80005410:	00000046 00000016 fffffff7 01d8d2c6     F...............
80005420:	00000045 00000026 0000000f 01ded9cf     E...&...........
80005430:	00000046 00000016 fffffff7 01d8d2c6     F...............
80005440:	00000044 00000051 fffffffc 01e3dfd7     D...Q...........
80005450:	00000045 00000026 0000000f 01ded9cf     E...&...........
80005460:	00000044 00000051 ffffffdc 01e2ded5     D...Q...........
80005470:	ffffffb6 00000054 ffffffdc 01dfdbd1     ....T...........
80005480:	ffffffb6 00000054 00000005 01e4e0d8     ....T...........
80005490:	ffffffb6 00000054 0000002d 01e4e1d9     ....T...-.......
800054a0:	ffffffb6 00000053 00000050 01d3cdc0     ....S...P.......
800054b0:	00000043 00000050 00000050 01d6d0c4     C...P...P.......
800054c0:	00000046 00000000 0000004b 01e5e1d9     F.......K.......
800054d0:	00000044 0000003b 0000002f 01e5e1d9     D...;.../.......
800054e0:	00000043 00000050 00000050 01d6d0c4     C...P...P.......
800054f0:	ffffffb6 00000053 00000050 01d3cdc0     ....S...P.......
80005500:	ffffffb7 00000043 00000037 01e6e3db     ....C...7.......
80005510:	ffffffb9 00000003 00000058 01e3dfd7     ........X.......
80005520:	ffffffb9 00000003 0000002e 01e7e4dc     ................
80005530:	ffffffb7 0000002f 00000018 01dbd6cb     ..../...........
80005540:	ffffffb8 0000001a fffffff8 01d8d2c6     ................
80005550:	ffffffb8 0000001a fffffff8 01d8d2c6     ................
80005560:	ffffffb8 0000001a fffffff8 01e8e5de     ................
80005570:	ffffffb9 00000004 00000001 01e5e1d9     ................
80005580:	ffffffb6 00000054 ffffffdc 01dfdbd1     ....T...........
80005590:	ffffffb8 0000001a fffffff8 01d8d2c6     ................
800055a0:	ffffffb7 0000002f 00000018 01dbd6cb     ..../...........
800055b0:	ffffffb7 0000002f 00000018 01dbd6cb     ..../...........
800055c0:	ffffffb7 00000030 00000019 01eae7e0     ....0...........
800055d0:	ffffffb6 00000054 00000005 01e4e0d8     ....T...........
800055e0:	00000045 00000026 0000000f 01ded9cf     E...&...........
800055f0:	00000047 00000000 00000021 01e9e6df     G.......!.......
80005600:	00000047 00000000 00000000 01e4e1d9     G...............
80005610:	00000047 00000000 00000000 01e4e1d9     G...............
80005620:	00000046 00000015 fffffff7 01e8e5de     F...............
80005630:	00000046 00000016 fffffff7 01d8d2c6     F...............
80005640:	00000046 00000016 fffffff7 01d8d2c6     F...............
80005650:	00000044 00000051 ffffffdc 01e2ded5     D...Q...........
80005660:	00000044 00000051 fffffffc 01e3dfd7     D...Q...........
80005670:	ffffffb6 00000054 00000005 01e4e0d8     ....T...........
80005680:	00000044 00000051 fffffffc 01e3dfd7     D...Q...........
80005690:	00000044 00000051 ffffffdc 01e2ded5     D...Q...........
800056a0:	00000044 00000051 ffffffdc 01e2ded5     D...Q...........
800056b0:	ffffffb6 00000054 ffffffdb 01e8e5de     ....T...........
800056c0:	ffffffb6 00000054 ffffffdc 01dfdbd1     ....T...........
800056d0:	00000014 ffffff6d 00000037 01595959     ....m...7...YYY.
800056e0:	fffffff5 ffffff73 ffffffb3 01595959     ....s.......YYY.
800056f0:	00000017 ffffff72 ffffffb3 01595959     ....r.......YYY.
80005700:	00000007 ffffffa0 00000013 01595959     ............YYY.
80005710:	fffffff6 ffffffa0 00000014 01595959     ............YYY.
80005720:	fffffff1 ffffff6d 00000037 01595959     ....m...7...YYY.
80005730:	00000019 ffffffcd 00000018 01595959     ............YYY.
80005740:	fffffff5 ffffffc5 ffffffe9 01595959     ............YYY.
80005750:	fffffff6 ffffffe0 00000017 01595959     ............YYY.
80005760:	00000019 ffffffb3 ffffffea 01595959     ............YYY.
80005770:	00000019 ffffffa0 00000013 01595959     ............YYY.
80005780:	00000017 ffffff72 ffffffb3 01595959     ....r.......YYY.
80005790:	fffffff5 ffffffc5 ffffffe9 01595959     ............YYY.
800057a0:	fffffff6 ffffffa0 00000014 01595959     ............YYY.
800057b0:	fffffff6 ffffffe0 00000017 01595959     ............YYY.
800057c0:	00000019 ffffffb3 ffffffea 01595959     ............YYY.
800057d0:	00000017 ffffff72 ffffffb3 01595959     ....r.......YYY.
800057e0:	fffffff5 ffffff73 ffffffb3 01595959     ....s.......YYY.
800057f0:	fffffff5 ffffff73 ffffffb3 01595959     ....s.......YYY.
80005800:	fffffff5 ffffffc5 ffffffe9 01595959     ............YYY.
80005810:	00000019 ffffffb3 ffffffea 01595959     ............YYY.
80005820:	00000007 ffffffa0 00000013 01595959     ............YYY.
80005830:	00000019 ffffffa0 00000013 01595959     ............YYY.
80005840:	00000019 ffffffcd 00000018 01595959     ............YYY.
80005850:	00000007 ffffffa0 00000013 01595959     ............YYY.
80005860:	00000014 ffffff6d 00000037 01595959     ....m...7...YYY.
80005870:	00000019 ffffffa0 00000013 01595959     ............YYY.
80005880:	00000019 ffffffcd 00000018 01595959     ............YYY.
80005890:	fffffff6 ffffffe0 00000017 01595959     ............YYY.
800058a0:	fffffff6 ffffffa0 00000014 01595959     ............YYY.
800058b0:	fffffff6 ffffffa0 00000014 01595959     ............YYY.
800058c0:	00000007 ffffffa0 00000013 01595959     ............YYY.
800058d0:	00000019 ffffffcd 00000018 01595959     ............YYY.
800058e0:	fffffff5 ffffff73 ffffffb3 01595959     ....s.......YYY.
800058f0:	fffffff1 ffffff6d 00000037 01595959     ....m...7...YYY.
80005900:	fffffff6 ffffffa0 00000014 01595959     ............YYY.
80005910:	00000019 ffffffa0 00000013 01595959     ............YYY.
80005920:	00000014 ffffff6d 00000037 01595959     ....m...7...YYY.
80005930:	00000017 ffffff72 ffffffb3 01595959     ....r.......YYY.
80005940:	fffffff2 fffffe70 ffffff64 01595959     ....p...d...YYY.
80005950:	fffffff9 fffffe4c ffffff65 01595959     ....L...e...YYY.
80005960:	fffffff1 fffffe4d ffffff69 01595959     ....M...i...YYY.
80005970:	fffffffa fffffe70 ffffff60 01595959     ....p...`...YYY.
80005980:	00000001 fffffe4c ffffff65 01595959     ....L...e...YYY.
80005990:	fffffff9 fffffe4c ffffff65 01595959     ....L...e...YYY.
800059a0:	0000000a fffffe70 ffffff64 01595959     ....p...d...YYY.
800059b0:	00000001 fffffe4c ffffff65 01595959     ....L...e...YYY.
800059c0:	00000002 fffffe70 ffffff60 01595959     ....p...`...YYY.
800059d0:	0000000e fffffe71 ffffff6c 01595959     ....q...l...YYY.
800059e0:	00000009 fffffe4d ffffff69 01595959     ....M...i...YYY.
800059f0:	0000000a fffffe70 ffffff64 01595959     ....p...d...YYY.
80005a00:	0000000e fffffe72 ffffff76 01595959     ....r...v...YYY.
80005a10:	0000000e fffffe4e ffffff71 01595959     ....N...q...YYY.
80005a20:	0000000e fffffe71 ffffff6c 01595959     ....q...l...YYY.
80005a30:	0000000e fffffe72 ffffff76 01595959     ....r...v...YYY.
80005a40:	00000009 fffffe50 ffffff82 01595959     ....P.......YYY.
80005a50:	0000000d fffffe4f ffffff7a 01595959     ....O...z...YYY.
80005a60:	00000001 fffffe74 ffffff82 01595959     ....t.......YYY.
80005a70:	00000009 fffffe50 ffffff82 01595959     ....P.......YYY.
80005a80:	00000009 fffffe73 ffffff7d 01595959     ....s...}...YYY.
80005a90:	fffffff9 fffffe74 ffffff82 01595959     ....t.......YYY.
80005aa0:	00000001 fffffe51 ffffff87 01595959     ....Q.......YYY.
80005ab0:	00000001 fffffe74 ffffff82 01595959     ....t.......YYY.
80005ac0:	fffffff9 fffffe74 ffffff82 01595959     ....t.......YYY.
80005ad0:	fffffff1 fffffe51 ffffff82 01595959     ....Q.......YYY.
80005ae0:	fffffff8 fffffe51 ffffff87 01595959     ....Q.......YYY.
80005af0:	fffffff1 fffffe74 ffffff7d 01595959     ....t...}...YYY.
80005b00:	ffffffec fffffe50 ffffff7a 01595959     ....P...z...YYY.
80005b10:	fffffff1 fffffe51 ffffff82 01595959     ....Q.......YYY.
80005b20:	ffffffed fffffe73 ffffff75 01595959     ....s...u...YYY.
80005b30:	ffffffec fffffe4e ffffff71 01595959     ....N...q...YYY.
80005b40:	ffffffec fffffe50 ffffff7a 01595959     ....P...z...YYY.
80005b50:	fffffff2 fffffe70 ffffff64 01595959     ....p...d...YYY.
80005b60:	ffffffec fffffe4e ffffff71 01595959     ....N...q...YYY.
80005b70:	ffffffed fffffe72 ffffff6c 01595959     ....r...l...YYY.
80005b80:	00000009 fffffe4d ffffff69 01595959     ....M...i...YYY.
80005b90:	00000001 fffffe51 ffffff87 01595959     ....Q.......YYY.
80005ba0:	ffffffec fffffe4e ffffff71 01595959     ....N...q...YYY.
80005bb0:	fffffff9 fffffe74 ffffff82 01595959     ....t.......YYY.
80005bc0:	0000000e fffffe71 ffffff6c 01595959     ....q...l...YYY.
80005bd0:	fffffff2 fffffe70 ffffff64 01595959     ....p...d...YYY.
80005be0:	00000014 ffffff6d 00000037 01595959     ....m...7...YYY.
80005bf0:	fffffff1 ffffff6d 00000037 01595959     ....m...7...YYY.
80005c00:	fffffff5 ffffff73 ffffffb3 01595959     ....s.......YYY.
80005c10:	00000019 ffffffcd 00000018 01595959     ............YYY.
80005c20:	00000019 ffffffb3 ffffffea 01595959     ............YYY.
80005c30:	fffffff5 ffffffc5 ffffffe9 01595959     ............YYY.
80005c40:	00000019 ffffffb3 ffffffea 01595959     ............YYY.
80005c50:	00000019 ffffffcd 00000018 01595959     ............YYY.
80005c60:	00000019 ffffffa0 00000013 01595959     ............YYY.
80005c70:	fffffff5 ffffffc5 ffffffe9 01595959     ............YYY.
80005c80:	fffffff5 ffffff73 ffffffb3 01595959     ....s.......YYY.
80005c90:	fffffff6 ffffffa0 00000014 01595959     ............YYY.
80005ca0:	00000007 ffffffa0 00000013 01595959     ............YYY.
80005cb0:	fffffff1 ffffff6d 00000037 01595959     ....m...7...YYY.
80005cc0:	00000014 ffffff6d 00000037 01595959     ....m...7...YYY.
80005cd0:	fffffff2 fffffe70 ffffff64 01595959     ....p...d...YYY.
80005ce0:	fffffffa fffffe70 ffffff60 01595959     ....p...`...YYY.
80005cf0:	fffffff9 fffffe4c ffffff65 01595959     ....L...e...YYY.
80005d00:	fffffffa fffffe70 ffffff60 01595959     ....p...`...YYY.
80005d10:	00000002 fffffe70 ffffff60 01595959     ....p...`...YYY.
80005d20:	00000001 fffffe4c ffffff65 01595959     ....L...e...YYY.
80005d30:	0000000a fffffe70 ffffff64 01595959     ....p...d...YYY.
80005d40:	00000009 fffffe4d ffffff69 01595959     ....M...i...YYY.
80005d50:	00000001 fffffe4c ffffff65 01595959     ....L...e...YYY.
80005d60:	0000000e fffffe71 ffffff6c 01595959     ....q...l...YYY.
80005d70:	0000000e fffffe4e ffffff71 01595959     ....N...q...YYY.
80005d80:	00000009 fffffe4d ffffff69 01595959     ....M...i...YYY.
80005d90:	0000000e fffffe72 ffffff76 01595959     ....r...v...YYY.
80005da0:	0000000d fffffe4f ffffff7a 01595959     ....O...z...YYY.
80005db0:	0000000e fffffe4e ffffff71 01595959     ....N...q...YYY.
80005dc0:	0000000e fffffe72 ffffff76 01595959     ....r...v...YYY.
80005dd0:	00000009 fffffe73 ffffff7d 01595959     ....s...}...YYY.
80005de0:	00000009 fffffe50 ffffff82 01595959     ....P.......YYY.
80005df0:	00000001 fffffe74 ffffff82 01595959     ....t.......YYY.
80005e00:	00000001 fffffe51 ffffff87 01595959     ....Q.......YYY.
80005e10:	00000009 fffffe50 ffffff82 01595959     ....P.......YYY.
80005e20:	fffffff9 fffffe74 ffffff82 01595959     ....t.......YYY.
80005e30:	fffffff8 fffffe51 ffffff87 01595959     ....Q.......YYY.
80005e40:	00000001 fffffe51 ffffff87 01595959     ....Q.......YYY.
80005e50:	fffffff9 fffffe74 ffffff82 01595959     ....t.......YYY.
80005e60:	fffffff1 fffffe74 ffffff7d 01595959     ....t...}...YYY.
80005e70:	fffffff1 fffffe51 ffffff82 01595959     ....Q.......YYY.
80005e80:	fffffff1 fffffe74 ffffff7d 01595959     ....t...}...YYY.
80005e90:	ffffffed fffffe73 ffffff75 01595959     ....s...u...YYY.
80005ea0:	ffffffec fffffe50 ffffff7a 01595959     ....P...z...YYY.
80005eb0:	ffffffed fffffe73 ffffff75 01595959     ....s...u...YYY.
80005ec0:	ffffffed fffffe72 ffffff6c 01595959     ....r...l...YYY.
80005ed0:	ffffffec fffffe4e ffffff71 01595959     ....N...q...YYY.
80005ee0:	fffffff2 fffffe70 ffffff64 01595959     ....p...d...YYY.
80005ef0:	fffffff1 fffffe4d ffffff69 01595959     ....M...i...YYY.
80005f00:	ffffffec fffffe4e ffffff71 01595959     ....N...q...YYY.
80005f10:	ffffffec fffffe4e ffffff71 01595959     ....N...q...YYY.
80005f20:	fffffff1 fffffe4d ffffff69 01595959     ....M...i...YYY.
80005f30:	fffffff9 fffffe4c ffffff65 01595959     ....L...e...YYY.
80005f40:	fffffff9 fffffe4c ffffff65 01595959     ....L...e...YYY.
80005f50:	00000001 fffffe4c ffffff65 01595959     ....L...e...YYY.
80005f60:	00000009 fffffe4d ffffff69 01595959     ....M...i...YYY.
80005f70:	00000009 fffffe4d ffffff69 01595959     ....M...i...YYY.
80005f80:	0000000e fffffe4e ffffff71 01595959     ....N...q...YYY.
80005f90:	0000000d fffffe4f ffffff7a 01595959     ....O...z...YYY.
80005fa0:	0000000d fffffe4f ffffff7a 01595959     ....O...z...YYY.
80005fb0:	00000009 fffffe50 ffffff82 01595959     ....P.......YYY.
80005fc0:	00000001 fffffe51 ffffff87 01595959     ....Q.......YYY.
80005fd0:	00000001 fffffe51 ffffff87 01595959     ....Q.......YYY.
80005fe0:	fffffff8 fffffe51 ffffff87 01595959     ....Q.......YYY.
80005ff0:	fffffff1 fffffe51 ffffff82 01595959     ....Q.......YYY.
80006000:	fffffff1 fffffe51 ffffff82 01595959     ....Q.......YYY.
80006010:	ffffffec fffffe50 ffffff7a 01595959     ....P...z...YYY.
80006020:	ffffffec fffffe4e ffffff71 01595959     ....N...q...YYY.
80006030:	ffffffec fffffe4e ffffff71 01595959     ....N...q...YYY.
80006040:	fffffff9 fffffe4c ffffff65 01595959     ....L...e...YYY.
80006050:	00000009 fffffe4d ffffff69 01595959     ....M...i...YYY.
80006060:	00000009 fffffe4d ffffff69 01595959     ....M...i...YYY.
80006070:	0000000d fffffe4f ffffff7a 01595959     ....O...z...YYY.
80006080:	00000001 fffffe51 ffffff87 01595959     ....Q.......YYY.
80006090:	00000001 fffffe51 ffffff87 01595959     ....Q.......YYY.
800060a0:	fffffff1 fffffe51 ffffff82 01595959     ....Q.......YYY.
800060b0:	ffffffec fffffe4e ffffff71 01595959     ....N...q...YYY.
800060c0:	fffffff2 fffffe70 ffffff64 01595959     ....p...d...YYY.
800060d0:	ffffffed fffffe72 ffffff6c 01595959     ....r...l...YYY.
800060e0:	ffffffed fffffe73 ffffff75 01595959     ....s...u...YYY.
800060f0:	ffffffed fffffe73 ffffff75 01595959     ....s...u...YYY.
80006100:	fffffff1 fffffe74 ffffff7d 01595959     ....t...}...YYY.
80006110:	fffffff9 fffffe74 ffffff82 01595959     ....t.......YYY.
80006120:	fffffff9 fffffe74 ffffff82 01595959     ....t.......YYY.
80006130:	00000001 fffffe74 ffffff82 01595959     ....t.......YYY.
80006140:	00000009 fffffe73 ffffff7d 01595959     ....s...}...YYY.
80006150:	00000009 fffffe73 ffffff7d 01595959     ....s...}...YYY.
80006160:	0000000e fffffe72 ffffff76 01595959     ....r...v...YYY.
80006170:	0000000e fffffe71 ffffff6c 01595959     ....q...l...YYY.
80006180:	0000000e fffffe71 ffffff6c 01595959     ....q...l...YYY.
80006190:	0000000a fffffe70 ffffff64 01595959     ....p...d...YYY.
800061a0:	00000002 fffffe70 ffffff60 01595959     ....p...`...YYY.
800061b0:	00000002 fffffe70 ffffff60 01595959     ....p...`...YYY.
800061c0:	fffffffa fffffe70 ffffff60 01595959     ....p...`...YYY.
800061d0:	fffffff2 fffffe70 ffffff64 01595959     ....p...d...YYY.
800061e0:	fffffff2 fffffe70 ffffff64 01595959     ....p...d...YYY.
800061f0:	ffffffed fffffe73 ffffff75 01595959     ....s...u...YYY.
80006200:	fffffff9 fffffe74 ffffff82 01595959     ....t.......YYY.
80006210:	fffffff9 fffffe74 ffffff82 01595959     ....t.......YYY.
80006220:	00000009 fffffe73 ffffff7d 01595959     ....s...}...YYY.
80006230:	0000000e fffffe71 ffffff6c 01595959     ....q...l...YYY.
80006240:	0000000e fffffe71 ffffff6c 01595959     ....q...l...YYY.
80006250:	00000002 fffffe70 ffffff60 01595959     ....p...`...YYY.
80006260:	fffffff2 fffffe70 ffffff64 01595959     ....p...d...YYY.
80006270:	0000000a 800008fc 80000aa8 80000aa8     ................
80006280:	80000aa8 80000aa8 80000aa8 80000aa8     ................
80006290:	80000aa8 80000aa8 80000aa8 80000aa8     ................
800062a0:	800009c8 80000804 80000aa8 80000aa8     ................
800062b0:	80000aa8 80000aa8 80000aa8 80000aa8     ................
800062c0:	80000aa8 80000aa8 80000aa8 80000aa8     ................
800062d0:	80000aa8 80000aa8 80000aa8 80000aa8     ................
800062e0:	80000a20 80000aa8 80000804 80000aa8      ...............
800062f0:	80000aa8 800008fc 6c6c6548 77202c6f     ........Hello, w
80006300:	646c726f 65540a21 6e697473 00000067     orld!.Testing...
80006310:	000a6425 25206425 20202064 00000a20     %d..%d %d    ...
80006320:	20206425 20642520 20202020 000a2020     %d   %d       ..
